Certificate:
    Data:
        Version: 3 (0x2)
        Serial Number: 3 (0x3)
    Signature Algorithm: sha512WithRSAEncryption
        Issuer: DC=hf, O=Hackfest 2014, OU=Hackfest mon2k14 root CA, CN=Hackfest mon2k14 root CA
        Validity
            Not Before: Aug  6 13:06:51 2014 GMT
            Not After : Aug  5 13:06:51 2016 GMT
        Subject: DC=hf, O=Hackfest 2014, OU=Hackfest mon2k14 client CA, CN=hfowner
        Subject Public Key Info:
            Public Key Algorithm: rsaEncryption
                Public-Key: (4096 bit)
                Modulus:
                    00:c8:d5:00:dd:0e:38:bb:df:1a:bf:c2:a4:01:50:
                    9d:c1:d0:54:76:2c:95:2f:0c:64:a9:b7:15:ea:64:
                    b4:a5:f4:c2:71:29:a4:39:10:ba:57:ed:4c:d7:14:
                    c7:b9:84:31:4e:2d:b1:f5:9e:7c:57:3f:d0:c3:ce:
                    2a:e7:dd:db:8b:b2:d9:01:04:05:33:3f:7a:1d:c5:
                    e3:ef:7c:a6:0b:a2:13:42:62:b7:14:88:5d:b1:66:
                    3f:ce:0c:a2:a3:77:b3:78:67:25:5b:82:d7:ae:18:
                    76:12:55:b8:00:a5:eb:23:aa:a7:2f:35:6e:28:41:
                    2c:14:e3:67:99:df:ad:28:7f:42:cf:5f:a7:ec:c4:
                    fa:49:97:5f:3f:75:59:95:b3:6a:ac:f2:17:e4:b0:
                    5d:e9:42:8e:e2:4d:54:99:e8:5b:30:41:b6:d3:b7:
                    0c:24:5f:c8:a1:99:19:86:db:70:1b:f7:8c:82:3c:
                    8e:36:8f:09:c6:cb:7a:dc:3c:6d:80:d2:e4:a2:66:
                    e8:6e:dd:2c:1f:88:89:bc:9b:55:ca:2c:87:d9:f2:
                    b7:18:97:06:15:f7:47:8c:ab:c3:f2:d6:44:e1:60:
                    b6:d2:3a:07:39:10:8c:22:3f:41:57:49:16:1c:52:
                    69:7d:f4:09:cf:e1:62:4e:18:b6:60:a7:65:2f:7e:
                    15:54:2b:a4:a0:49:54:41:51:24:f6:00:d6:2a:3e:
                    dd:b0:b5:31:19:9c:eb:05:c6:bf:6d:c1:88:d8:16:
                    e6:ed:bc:a9:55:79:8a:a8:8e:47:6c:c8:36:ef:8c:
                    9c:2b:91:5f:66:22:82:2c:29:ba:54:67:43:43:2b:
                    9e:58:3a:10:60:50:4f:0a:63:a1:ec:a2:d7:b2:bf:
                    e3:0e:12:7d:4f:01:8d:42:c1:0e:34:f6:dc:d6:ce:
                    98:18:29:b9:94:c3:9f:d6:99:2f:2c:36:fe:c4:67:
                    b5:9f:fb:ef:4c:3c:52:67:a1:52:fd:2b:10:6d:b7:
                    14:15:4f:d9:cd:bf:78:6f:d9:23:35:54:fd:de:c2:
                    f8:ec:31:22:96:a1:7c:7f:c6:df:ba:11:50:36:3c:
                    ef:a1:cd:9d:94:07:d7:75:d3:37:f9:bd:7f:0d:30:
                    56:04:57:ff:57:7b:27:28:a2:18:88:5b:31:e5:5e:
                    f1:f4:59:2f:b3:a0:7f:da:13:9f:04:13:e9:d2:12:
                    ac:22:17:aa:f4:62:1e:b4:51:a9:57:aa:ea:ec:3e:
                    50:66:97:cb:89:8d:4f:f8:32:71:b4:fc:4a:a6:3f:
                    57:c0:cd:e9:04:c1:8b:90:67:da:f3:c3:5f:fc:93:
                    ae:e6:0e:45:7c:5e:25:43:e0:ee:7c:a9:43:58:ce:
                    18:ae:e5
                Exponent: 65537 (0x10001)
        X509v3 extensions:
            X509v3 Key Usage: critical
                Digital Signature, Key Encipherment
            X509v3 Basic Constraints: 
                CA:FALSE
            X509v3 Extended Key Usage: 
                TLS Web Server Authentication, TLS Web Client Authentication
            X509v3 Subject Key Identifier: 
                EE:9A:91:D0:C5:FF:BB:94:13:06:AB:F7:75:74:61:04:B4:1B:C8:C6
            X509v3 Authority Key Identifier: 
                keyid:10:ED:51:C8:68:90:F9:2B:E3:4B:CA:07:D9:B6:B7:70:DD:BB:5F:12

            X509v3 Subject Alternative Name: 
                DNS:mon2k14.hf
    Signature Algorithm: sha512WithRSAEncryption
         68:f9:05:3a:a5:45:70:9d:7c:bf:11:4a:9a:aa:b1:cd:09:26:
         ca:10:81:24:a4:dd:b0:e3:0d:83:2b:40:00:b1:70:fb:18:a8:
         25:44:97:fc:73:e9:b0:1e:c9:df:23:99:ac:92:5d:07:14:f5:
         9c:3d:49:30:5c:e8:d0:f4:01:40:40:55:a2:cc:d0:d3:a4:64:
         fd:73:5a:c0:72:a4:a7:cd:c0:e7:11:40:a4:63:96:8e:cc:cc:
         41:a7:b1:3b:95:d9:a0:b2:34:b1:8f:19:b0:b4:13:a8:83:ec:
         e8:5d:f1:08:06:1a:0c:fc:49:3f:93:ec:5a:22:79:65:79:87:
         eb:1f:9c:25:5e:80:3c:ee:15:a1:43:fd:37:f1:6f:39:42:22:
         48:18:82:bc:2c:c2:09:d5:53:24:48:ad:f5:6a:3b:04:5b:61:
         be:71:b4:7c:6f:ef:e0:05:f8:ae:cd:cb:2b:8b:0e:00:51:f8:
         e1:4f:e3:a2:d9:90:9d:e8:83:c3:e3:90:72:33:c3:b7:7f:4b:
         8d:c5:d3:c9:c2:15:68:16:0e:ff:d9:39:11:3a:f4:b6:03:b0:
         5f:12:4e:aa:9d:a2:8f:0e:80:4d:7c:78:09:30:46:cf:2d:99:
         0d:96:5f:1a:d7:e6:fe:41:bf:69:40:2a:4e:20:9e:cc:ee:94:
         dc:1d:4e:6f:43:6d:c2:b4:42:8f:24:25:29:88:34:60:1a:5b:
         80:59:f6:cf:fd:1c:ac:db:e0:63:62:1c:b0:10:e4:45:e1:06:
         21:6c:24:21:fe:b4:b6:c3:a9:1a:bc:c0:b5:92:86:67:2f:1d:
         0d:e3:1a:d2:63:3c:a4:11:48:37:8e:4b:80:a1:09:54:70:47:
         64:75:7a:af:1f:f4:12:b1:95:ae:81:c5:ae:5b:03:88:23:65:
         08:72:5c:4b:f3:1f:a5:12:b8:45:7d:a1:c1:29:c7:5d:27:8a:
         be:b9:4b:1d:29:d2:06:f5:29:cc:95:fd:24:43:fc:6e:66:94:
         1d:51:22:54:33:e9:97:b4:2d:71:58:25:01:16:71:2b:fb:b8:
         98:ad:4d:d8:27:56:11:38:13:67:57:da:6e:56:2c:4b:4d:2e:
         5e:d6:f6:eb:91:46:83:b6:6d:12:6f:95:49:43:0c:89:dc:c0:
         fb:58:2e:d5:c3:a6:ef:b1:5f:5e:c0:08:c9:ec:e5:20:27:5e:
         5a:42:2f:8e:1e:70:5d:33:7d:21:fe:fa:45:5f:76:7b:0a:22:
         79:4d:2f:b2:48:22:83:03:39:8e:6e:d7:97:10:0a:c8:fc:10:
         f4:d9:a9:60:8c:ef:08:47:26:96:8b:c3:6c:13:30:85:16:19:
         53:6c:87:31:f4:92:d5:c1
-----BEGIN CERTIFICATE-----
MIIF5TCCA82gAwIBAgIBAzANBgkqhkiG9w0BAQ0FADByMRIwEAYKCZImiZPyLGQB
GRYCaGYxFjAUBgNVBAoMDUhhY2tmZXN0IDIwMTQxITAfBgNVBAsMGEhhY2tmZXN0
IG1vbjJrMTQgcm9vdCBDQTEhMB8GA1UEAwwYSGFja2Zlc3QgbW9uMmsxNCByb290
IENBMB4XDTE0MDgwNjEzMDY1MVoXDTE2MDgwNTEzMDY1MVowYzESMBAGCgmSJomT
8ixkARkWAmhmMRYwFAYDVQQKDA1IYWNrZmVzdCAyMDE0MSMwIQYDVQQLDBpIYWNr
ZmVzdCBtb24yazE0IGNsaWVudCBDQTEQMA4GA1UEAwwHaGZvd25lcjCCAiIwDQYJ
KoZIhvcNAQEBBQADggIPADCCAgoCggIBAMjVAN0OOLvfGr/CpAFQncHQVHYslS8M
ZKm3FepktKX0wnEppDkQulftTNcUx7mEMU4tsfWefFc/0MPOKufd24uy2QEEBTM/
eh3F4+98pguiE0JitxSIXbFmP84MoqN3s3hnJVuC164YdhJVuACl6yOqpy81bihB
LBTjZ5nfrSh/Qs9fp+zE+kmXXz91WZWzaqzyF+SwXelCjuJNVJnoWzBBttO3DCRf
yKGZGYbbcBv3jII8jjaPCcbLetw8bYDS5KJm6G7dLB+IibybVcosh9nytxiXBhX3
R4yrw/LWROFgttI6BzkQjCI/QVdJFhxSaX30Cc/hYk4YtmCnZS9+FVQrpKBJVEFR
JPYA1io+3bC1MRmc6wXGv23BiNgW5u28qVV5iqiOR2zINu+MnCuRX2YigiwpulRn
Q0Mrnlg6EGBQTwpjoeyi17K/4w4SfU8BjULBDjT23NbOmBgpuZTDn9aZLyw2/sRn
tZ/770w8UmehUv0rEG23FBVP2c2/eG/ZIzVU/d7C+OwxIpahfH/G37oRUDY876HN
nZQH13XTN/m9fw0wVgRX/1d7JyiiGIhbMeVe8fRZL7Ogf9oTnwQT6dISrCIXqvRi
HrRRqVeq6uw+UGaXy4mNT/gycbT8SqY/V8DN6QTBi5Bn2vPDX/yTruYORXxeJUPg
7nypQ1jOGK7lAgMBAAGjgZQwgZEwDgYDVR0PAQH/BAQDAgWgMAkGA1UdEwQCMAAw
HQYDVR0lBBYwFAYIKwYBBQUHAwEGCCsGAQUFBwMCMB0GA1UdDgQWBBTumpHQxf+7
lBMGq/d1dGEEtBvIxjAfBgNVHSMEGDAWgBQQ7VHIaJD5K+NLygfZtrdw3btfEjAV
BgNVHREEDjAMggptb24yazE0LmhmMA0GCSqGSIb3DQEBDQUAA4ICAQBo+QU6pUVw
nXy/EUqaqrHNCSbKEIEkpN2w4w2DK0AAsXD7GKglRJf8c+mwHsnfI5mskl0HFPWc
PUkwXOjQ9AFAQFWizNDTpGT9c1rAcqSnzcDnEUCkY5aOzMxBp7E7ldmgsjSxjxmw
tBOog+zoXfEIBhoM/Ek/k+xaInlleYfrH5wlXoA87hWhQ/038W85QiJIGIK8LMIJ
1VMkSK31ajsEW2G+cbR8b+/gBfiuzcsriw4AUfjhT+Oi2ZCd6IPD45ByM8O3f0uN
xdPJwhVoFg7/2TkROvS2A7BfEk6qnaKPDoBNfHgJMEbPLZkNll8a1+b+Qb9pQCpO
IJ7M7pTcHU5vQ23CtEKPJCUpiDRgGluAWfbP/Rys2+BjYhywEORF4QYhbCQh/rS2
w6kavMC1koZnLx0N4xrSYzykEUg3jkuAoQlUcEdkdXqvH/QSsZWugcWuWwOII2UI
clxL8x+lErhFfaHBKcddJ4q+uUsdKdIG9SnMlf0kQ/xuZpQdUSJUM+mXtC1xWCUB
FnEr+7iYrU3YJ1YROBNnV9puVixLTS5e1vbrkUaDtm0Sb5VJQwyJ3MD7WC7Vw6bv
sV9ewAjJ7OUgJ15aQi+OHnBdM30h/vpFX3Z7CiJ5TS+ySCKDAzmObteXEArI/BD0
2algjO8IRyaWi8NsEzCFFhlTbIcx9JLVwQ==
-----END CERTIFICATE-----
