Certificate:
    Data:
        Version: 3 (0x2)
        Serial Number: 35 (0x23)
    Signature Algorithm: sha512WithRSAEncryption
        Issuer: C=CA, ST=Qc, L=Quebec, O=My Org, OU=My Org Department, CN=My Org CA
        Validity
            Not Before: Dec 28 04:26:36 2014 GMT
            Not After : Dec 27 04:26:36 2024 GMT
        Subject: C=CA, ST=Qc, L=Quebec, O=My Org, OU=My Org Department, CN=cli.psql.scoreboard.flagupdater
        Subject Public Key Info:
            Public Key Algorithm: rsaEncryption
                Public-Key: (4096 bit)
                Modulus:
                    00:eb:24:b9:69:ba:fc:32:4c:42:b0:8f:d5:58:57:
                    fa:db:c4:58:87:99:ab:11:dc:20:ca:69:ec:33:9b:
                    d4:2a:d7:14:0f:e1:33:9a:96:ed:66:f8:aa:06:76:
                    9f:a7:0d:6e:95:69:a1:e3:b9:09:ea:2e:44:10:b6:
                    c2:32:2b:f4:2b:e3:cc:b3:9c:77:47:41:2a:20:5c:
                    97:6d:c1:ee:fb:81:9f:dd:8f:96:1e:be:af:2e:13:
                    2d:a6:73:70:60:04:ff:97:f2:e5:9c:97:1d:58:c0:
                    4d:37:0a:a5:c6:c9:99:19:c0:91:ea:19:54:9d:1e:
                    04:7e:ae:e7:28:8a:ed:09:74:76:f7:bf:46:7e:dc:
                    ac:7b:ec:10:bf:d2:c2:f5:19:1b:92:c0:f0:55:01:
                    25:b5:a6:e9:ad:28:ce:44:7e:66:07:3e:c3:ee:06:
                    b4:81:a3:8c:2e:bc:02:4c:d6:5b:ee:1f:cd:13:1a:
                    2b:e2:b9:ba:09:dc:a2:69:c9:44:45:d7:d1:1b:2d:
                    0d:ca:b1:6e:bd:fd:cf:de:75:59:65:5c:be:e8:df:
                    a3:e9:24:ca:1d:64:ec:29:0f:29:5a:84:41:51:e7:
                    80:10:c5:94:ff:58:0f:8b:24:31:a8:d5:65:f9:eb:
                    7b:53:b3:a0:d0:31:71:da:8f:ca:d6:c9:7a:c7:6e:
                    a2:02:00:0b:dc:d4:96:f2:a9:d1:34:d9:fc:9b:97:
                    10:21:05:b3:c0:54:56:b2:f0:4f:17:bd:71:5d:e8:
                    fe:73:1b:07:4b:e5:9e:4c:db:a2:c0:53:c2:91:69:
                    b1:a2:38:3e:16:22:fd:96:f4:f6:df:9a:19:c4:ab:
                    e0:1b:bf:79:52:a2:4a:35:b1:25:09:9f:53:2e:c4:
                    de:27:d0:f0:03:83:10:42:9c:11:91:ad:f3:ed:f6:
                    10:d0:b1:51:1f:24:91:a0:f6:6f:9f:e3:6f:64:ad:
                    ff:c5:8c:87:ff:8e:de:00:a8:8f:18:e9:4d:2a:9b:
                    5e:9e:d4:23:41:f3:46:c9:57:e6:d4:2a:6b:2f:45:
                    eb:c4:00:f5:92:c2:b6:e1:a3:5c:aa:1f:38:2d:1d:
                    8d:92:8c:89:89:06:5b:0b:78:a2:a2:e2:69:65:09:
                    1b:80:43:e6:98:66:00:11:4e:1a:9d:8a:0c:12:71:
                    64:29:e6:39:86:bb:b2:8e:4d:70:b5:59:91:9d:09:
                    df:99:dc:77:b5:e5:ca:de:69:37:92:26:54:1f:a0:
                    65:07:ad:12:db:60:f1:93:c7:09:bc:89:07:d7:23:
                    69:11:74:f6:4c:40:e5:ec:cb:cd:df:b7:c9:4f:44:
                    c3:45:81:f4:8c:3a:e8:d6:2d:38:52:8e:3c:cf:5c:
                    d8:98:5d
                Exponent: 65537 (0x10001)
        X509v3 extensions:
            X509v3 Key Usage: critical
                Digital Signature, Key Encipherment
            X509v3 Basic Constraints: critical
                CA:FALSE
            X509v3 Extended Key Usage: 
                TLS Web Client Authentication
            X509v3 Subject Key Identifier: 
                61:3D:EE:39:25:F4:5C:39:48:EF:C0:A8:C2:F0:F2:EB:DE:E4:A2:CB
    Signature Algorithm: sha512WithRSAEncryption
         95:7b:58:c3:15:d1:44:a5:3f:9e:17:6c:07:f8:20:2e:b6:33:
         f1:8f:ce:8a:d6:41:3d:de:57:9d:1c:93:83:fb:85:d6:ea:33:
         b5:70:b2:f4:a1:53:84:68:89:94:8d:50:96:03:94:ac:71:04:
         33:4d:2b:f7:e2:49:fd:2b:a4:51:74:0b:57:a8:95:2e:78:29:
         62:f2:54:97:ad:b8:e5:06:da:28:d0:11:5e:15:2f:f8:ae:bf:
         a6:e5:f9:48:90:09:c4:3c:84:00:b9:0b:19:1f:79:52:dc:f6:
         c0:6d:f9:c7:9d:42:9e:01:86:1e:3e:a8:ba:ad:75:2d:e7:e2:
         2d:92:4c:29:8b:c2:3a:50:5c:22:67:7e:38:16:9a:8c:b7:30:
         8e:3a:35:a6:3d:06:00:d0:0c:ec:04:da:f5:c0:48:db:bb:b3:
         39:a3:78:d1:27:61:25:64:c0:04:95:56:96:f0:61:09:06:28:
         86:91:07:d8:89:dc:12:48:37:37:ba:63:bd:59:5a:13:23:d4:
         2c:0d:b8:ef:c7:48:16:36:1b:1e:eb:15:d7:c2:d6:ad:b1:33:
         ea:b2:96:2e:04:df:93:cb:7f:bb:74:68:c4:a2:fa:f8:6d:31:
         9c:3a:48:70:84:fd:18:76:40:bc:4f:e7:1b:c5:5c:ab:0f:48:
         59:b3:30:5b:c2:e3:7a:47:9f:70:dc:10:bd:53:20:01:83:59:
         b0:ab:a9:90:10:ea:34:d2:f6:67:3c:23:bc:72:63:4d:d0:53:
         a6:fb:98:e5:76:cd:41:00:06:4c:aa:67:5f:11:6c:d1:6c:0e:
         42:43:de:76:94:c3:1b:42:b0:d5:27:d7:49:d2:25:19:2a:78:
         e4:2f:b9:fb:73:6e:aa:53:08:0e:85:aa:d3:43:22:ed:60:68:
         04:7a:65:f2:53:8b:f8:9d:1c:ff:47:8c:9d:e2:07:c9:ea:90:
         9f:2a:26:3a:08:63:c5:31:e2:c5:8d:f5:be:9c:3a:3d:c2:32:
         d5:0a:69:5f:e2:cf:74:c9:8f:91:9a:59:f5:44:0b:5a:2a:ca:
         00:cd:ea:8d:6e:d1:ff:db:a0:a6:d4:12:0f:84:71:51:f4:4c:
         0c:3b:9d:e7:d5:bf:c2:ee:85:33:a1:35:59:fb:f3:8a:b0:a9:
         42:a6:a2:98:a0:47:4c:58:f9:c5:8c:00:0b:86:af:75:b5:5b:
         05:09:08:f5:33:6d:29:19:b4:4b:5c:cb:e1:b8:9b:eb:a7:6a:
         84:69:92:14:a6:a3:a8:74:28:26:cf:07:92:b4:dd:fd:3a:61:
         0f:cc:26:43:63:07:1b:85:09:79:0d:dd:e9:da:db:68:30:5e:
         44:2d:bb:00:c3:ad:17:b1
-----BEGIN CERTIFICATE-----
MIIFvjCCA6agAwIBAgIBIzANBgkqhkiG9w0BAQ0FADBsMQswCQYDVQQGEwJDQTEL
MAkGA1UECAwCUWMxDzANBgNVBAcMBlF1ZWJlYzEPMA0GA1UECgwGTXkgT3JnMRow
GAYDVQQLDBFNeSBPcmcgRGVwYXJ0bWVudDESMBAGA1UEAwwJTXkgT3JnIENBMB4X
DTE0MTIyODA0MjYzNloXDTI0MTIyNzA0MjYzNlowgYIxCzAJBgNVBAYTAkNBMQsw
CQYDVQQIDAJRYzEPMA0GA1UEBwwGUXVlYmVjMQ8wDQYDVQQKDAZNeSBPcmcxGjAY
BgNVBAsMEU15IE9yZyBEZXBhcnRtZW50MSgwJgYDVQQDDB9jbGkucHNxbC5zY29y
ZWJvYXJkLmZsYWd1cGRhdGVyMIICIjANBgkqhkiG9w0BAQEFAAOCAg8AMIICCgKC
AgEA6yS5abr8MkxCsI/VWFf628RYh5mrEdwgymnsM5vUKtcUD+EzmpbtZviqBnaf
pw1ulWmh47kJ6i5EELbCMiv0K+PMs5x3R0EqIFyXbcHu+4Gf3Y+WHr6vLhMtpnNw
YAT/l/LlnJcdWMBNNwqlxsmZGcCR6hlUnR4Efq7nKIrtCXR2979Gftyse+wQv9LC
9RkbksDwVQEltabprSjORH5mBz7D7ga0gaOMLrwCTNZb7h/NExor4rm6CdyiaclE
RdfRGy0NyrFuvf3P3nVZZVy+6N+j6STKHWTsKQ8pWoRBUeeAEMWU/1gPiyQxqNVl
+et7U7Og0DFx2o/K1sl6x26iAgAL3NSW8qnRNNn8m5cQIQWzwFRWsvBPF71xXej+
cxsHS+WeTNuiwFPCkWmxojg+FiL9lvT235oZxKvgG795UqJKNbElCZ9TLsTeJ9Dw
A4MQQpwRka3z7fYQ0LFRHySRoPZvn+NvZK3/xYyH/47eAKiPGOlNKptentQjQfNG
yVfm1CprL0XrxAD1ksK24aNcqh84LR2NkoyJiQZbC3iiouJpZQkbgEPmmGYAEU4a
nYoMEnFkKeY5hruyjk1wtVmRnQnfmdx3teXK3mk3kiZUH6BlB60S22Dxk8cJvIkH
1yNpEXT2TEDl7MvN37fJT0TDRYH0jDro1i04Uo48z1zYmF0CAwEAAaNUMFIwDgYD
VR0PAQH/BAQDAgWgMAwGA1UdEwEB/wQCMAAwEwYDVR0lBAwwCgYIKwYBBQUHAwIw
HQYDVR0OBBYEFGE97jkl9Fw5SO/AqMLw8uve5KLLMA0GCSqGSIb3DQEBDQUAA4IC
AQCVe1jDFdFEpT+eF2wH+CAutjPxj86K1kE93ledHJOD+4XW6jO1cLL0oVOEaImU
jVCWA5SscQQzTSv34kn9K6RRdAtXqJUueCli8lSXrbjlBtoo0BFeFS/4rr+m5flI
kAnEPIQAuQsZH3lS3PbAbfnHnUKeAYYePqi6rXUt5+Itkkwpi8I6UFwiZ344FpqM
tzCOOjWmPQYA0AzsBNr1wEjbu7M5o3jRJ2ElZMAElVaW8GEJBiiGkQfYidwSSDc3
umO9WVoTI9QsDbjvx0gWNhse6xXXwtatsTPqspYuBN+Ty3+7dGjEovr4bTGcOkhw
hP0YdkC8T+cbxVyrD0hZszBbwuN6R59w3BC9UyABg1mwq6mQEOo00vZnPCO8cmNN
0FOm+5jlds1BAAZMqmdfEWzRbA5CQ952lMMbQrDVJ9dJ0iUZKnjkL7n7c26qUwgO
harTQyLtYGgEemXyU4v4nRz/R4yd4gfJ6pCfKiY6CGPFMeLFjfW+nDo9wjLVCmlf
4s90yY+Rmln1RAtaKsoAzeqNbtH/26Cm1BIPhHFR9EwMO53n1b/C7oUzoTVZ+/OK
sKlCpqKYoEdMWPnFjAALhq91tVsFCQj1M20pGbRLXMvhuJvrp2qEaZIUpqOodCgm
zweStN39OmEPzCZDYwcbhQl5Dd3p2ttoMF5ELbsAw60XsQ==
-----END CERTIFICATE-----
