Certificate:
    Data:
        Version: 3 (0x2)
        Serial Number: 37 (0x25)
    Signature Algorithm: sha512WithRSAEncryption
        Issuer: C=CA, ST=Qc, L=Quebec, O=My Org, OU=My Org Department, CN=My Org CA
        Validity
            Not Before: Dec 28 04:26:43 2014 GMT
            Not After : Dec 27 04:26:43 2024 GMT
        Subject: C=CA, ST=Qc, L=Quebec, O=My Org, OU=My Org Department, CN=cli.psql.scoreboard.hfowner
        Subject Public Key Info:
            Public Key Algorithm: rsaEncryption
                Public-Key: (4096 bit)
                Modulus:
                    00:ef:23:5d:cc:3b:10:de:4a:4f:36:ca:35:58:4d:
                    8e:de:91:33:d6:32:38:8c:25:a2:a2:83:b1:c3:83:
                    33:c7:bb:b0:04:2b:fe:15:18:b4:87:ea:fb:86:1f:
                    5f:cc:24:e8:ae:f6:65:cf:61:82:d1:68:e9:28:e0:
                    ec:e8:ac:6d:ae:be:ed:10:a6:67:1d:d9:ce:dd:9f:
                    2a:df:4d:b2:aa:e8:78:77:9b:23:c3:c3:d1:62:90:
                    ed:d7:92:ef:72:f4:0a:02:10:80:10:a5:95:24:f3:
                    bc:b1:38:96:74:9a:b7:de:70:32:af:f5:b4:87:28:
                    1d:27:db:78:9b:55:9c:99:fc:0f:63:ef:6f:e7:8c:
                    df:9c:b0:e4:dc:fa:8e:ca:cc:f1:3b:1c:ff:ec:66:
                    62:1b:9c:9d:cb:42:bc:dd:c4:5c:51:3f:c5:f9:51:
                    ef:49:45:bd:9d:39:4b:74:7a:a7:68:0d:1c:60:34:
                    96:87:74:2e:47:14:37:fc:05:49:1f:c0:08:b6:1c:
                    8f:9e:2d:bb:49:b4:45:95:c5:85:99:a0:09:43:e0:
                    8f:f1:bc:a3:db:31:4b:6e:ef:52:52:98:cb:5a:cc:
                    04:17:20:5c:8b:46:4b:53:95:1e:b2:46:68:c1:67:
                    de:2d:4e:a9:11:e1:88:4b:5e:0f:7d:a9:78:a1:d0:
                    4d:21:11:45:1e:69:fd:0e:3e:21:2f:f2:d1:b1:9c:
                    b0:7f:2e:58:21:97:e9:3d:88:9f:ab:3b:c8:48:d9:
                    4e:57:4d:f7:7a:f8:bf:87:86:1d:fb:f9:88:18:b0:
                    fe:1e:cd:34:be:84:f8:30:25:24:6e:c4:5b:05:79:
                    e7:87:0e:8f:8d:7b:03:5c:81:7a:19:66:51:ab:cf:
                    bb:ab:ae:eb:8d:b5:df:73:4e:42:50:13:4e:1e:5b:
                    a1:cf:35:18:7b:33:42:f0:96:c2:19:55:35:c0:7c:
                    26:5d:70:39:7d:83:92:fe:b1:b1:90:09:af:89:89:
                    cd:e4:ed:30:66:ad:89:a1:af:08:cd:fb:9e:10:c5:
                    70:96:82:7c:8b:11:5d:86:dd:1a:29:df:db:e2:99:
                    a7:cd:2f:47:39:4b:13:91:3b:52:3f:8a:f6:8b:74:
                    58:9c:71:d4:07:5c:74:22:db:18:e5:b3:f9:74:05:
                    c9:f0:40:9f:2d:b4:02:39:2d:26:5a:6f:0c:70:d9:
                    81:9b:03:45:a0:41:a3:ae:97:fe:1c:ee:1d:09:07:
                    e3:e8:09:26:f7:96:c4:19:85:85:0a:4e:a8:f2:9a:
                    38:6a:a4:4b:fe:a1:fa:89:a2:a7:97:42:ef:c0:21:
                    d8:eb:bb:31:d7:b1:2e:b0:4f:3f:7a:16:6e:77:44:
                    3b:be:83
                Exponent: 65537 (0x10001)
        X509v3 extensions:
            X509v3 Key Usage: critical
                Digital Signature, Key Encipherment
            X509v3 Basic Constraints: critical
                CA:FALSE
            X509v3 Extended Key Usage: 
                TLS Web Client Authentication
            X509v3 Subject Key Identifier: 
                55:C3:28:6A:5A:24:3D:31:6C:16:17:F5:B7:5D:3F:9E:A7:9D:7A:02
    Signature Algorithm: sha512WithRSAEncryption
         7e:4d:94:05:b0:43:76:a2:d9:c8:19:f2:37:e6:43:b9:40:56:
         71:30:09:2a:5e:d4:1e:d0:6a:7d:97:0b:f5:3e:35:fa:dc:0e:
         ce:e3:97:8e:99:ee:c4:38:b1:d7:2e:34:b4:9c:e2:54:3b:b4:
         b9:34:70:a2:58:4d:36:04:c2:b9:52:15:7b:fc:b2:bc:4a:fa:
         1c:17:08:cd:8d:8f:df:ec:89:40:0b:43:38:54:fe:2d:08:f6:
         9e:73:ee:6d:35:a6:36:0f:9e:f5:ed:6a:2f:de:3a:c9:5c:ee:
         27:45:ce:d7:2c:4a:ca:ae:8e:bc:50:e2:a5:66:4c:dc:0b:9c:
         ab:49:17:52:9b:ef:5d:e8:b6:1e:14:51:ce:08:9f:09:07:5f:
         91:fd:8c:a7:e1:ec:4b:cc:55:fd:16:b8:19:20:70:18:0a:f8:
         c3:fb:13:ba:4d:35:5f:19:09:30:70:fd:f7:4f:4e:55:7d:af:
         e8:6d:6d:cb:54:88:4e:8d:c2:75:b5:53:69:5a:52:c4:c0:fd:
         2c:c6:85:13:c3:42:a0:64:49:87:d2:b9:aa:94:4d:9b:95:9d:
         27:da:50:9e:e7:37:92:ae:82:fd:d0:1c:52:77:4a:1f:3c:7f:
         ad:5d:aa:dd:0b:ee:d9:09:4d:58:36:98:5a:af:d6:9d:23:ab:
         28:da:a6:ee:d4:bc:45:15:1b:b1:55:9b:2c:50:bf:c8:0f:35:
         17:3e:02:45:45:87:2e:96:99:b8:dc:d5:d5:25:59:65:92:15:
         f0:a3:63:4b:62:e8:37:88:2c:3f:8d:38:19:e3:3c:7d:3e:6a:
         b2:cc:50:99:df:92:df:12:fb:ca:09:ce:80:9f:47:32:b9:b4:
         d0:ec:c9:c0:2e:05:3d:8b:3c:7b:44:22:01:23:67:ef:be:df:
         ca:72:32:bf:5b:32:89:91:50:36:97:7e:69:9c:a4:91:39:d7:
         a4:37:2b:ae:4c:20:76:f6:2c:6a:03:3e:b6:0a:78:4a:82:6f:
         e9:f8:7f:2f:e8:1f:f5:35:8a:82:72:8c:ff:f8:4e:47:ff:19:
         7a:2b:8c:6e:90:59:15:fb:14:b3:1a:4e:76:e5:3c:a3:c0:de:
         73:95:fe:e8:aa:1b:cb:a1:62:a6:15:7c:c7:52:d7:ce:3c:ab:
         77:68:e7:15:ee:01:22:a8:83:d0:9a:47:35:84:49:79:ba:99:
         c9:7b:94:a2:51:b5:71:21:b2:8c:67:61:84:0c:88:08:b0:57:
         1f:35:9d:03:87:f8:d1:3a:2d:ab:82:62:89:df:31:8d:6e:13:
         35:17:34:a8:37:6b:00:27:71:4a:4f:2f:ca:98:4b:85:9b:63:
         25:dc:14:37:fd:cf:ca:aa
-----BEGIN CERTIFICATE-----
MIIFuTCCA6GgAwIBAgIBJTANBgkqhkiG9w0BAQ0FADBsMQswCQYDVQQGEwJDQTEL
MAkGA1UECAwCUWMxDzANBgNVBAcMBlF1ZWJlYzEPMA0GA1UECgwGTXkgT3JnMRow
GAYDVQQLDBFNeSBPcmcgRGVwYXJ0bWVudDESMBAGA1UEAwwJTXkgT3JnIENBMB4X
DTE0MTIyODA0MjY0M1oXDTI0MTIyNzA0MjY0M1owfjELMAkGA1UEBhMCQ0ExCzAJ
BgNVBAgMAlFjMQ8wDQYDVQQHDAZRdWViZWMxDzANBgNVBAoMBk15IE9yZzEaMBgG
A1UECwwRTXkgT3JnIERlcGFydG1lbnQxJDAiBgNVBAMMG2NsaS5wc3FsLnNjb3Jl
Ym9hcmQuaGZvd25lcjCCAiIwDQYJKoZIhvcNAQEBBQADggIPADCCAgoCggIBAO8j
Xcw7EN5KTzbKNVhNjt6RM9YyOIwloqKDscODM8e7sAQr/hUYtIfq+4YfX8wk6K72
Zc9hgtFo6Sjg7Oisba6+7RCmZx3Zzt2fKt9NsqroeHebI8PD0WKQ7deS73L0CgIQ
gBCllSTzvLE4lnSat95wMq/1tIcoHSfbeJtVnJn8D2Pvb+eM35yw5Nz6jsrM8Tsc
/+xmYhucnctCvN3EXFE/xflR70lFvZ05S3R6p2gNHGA0lod0LkcUN/wFSR/ACLYc
j54tu0m0RZXFhZmgCUPgj/G8o9sxS27vUlKYy1rMBBcgXItGS1OVHrJGaMFn3i1O
qRHhiEteD32peKHQTSERRR5p/Q4+IS/y0bGcsH8uWCGX6T2In6s7yEjZTldN93r4
v4eGHfv5iBiw/h7NNL6E+DAlJG7EWwV554cOj417A1yBehlmUavPu6uu642133NO
QlATTh5boc81GHszQvCWwhlVNcB8Jl1wOX2Dkv6xsZAJr4mJzeTtMGatiaGvCM37
nhDFcJaCfIsRXYbdGinf2+KZp80vRzlLE5E7Uj+K9ot0WJxx1AdcdCLbGOWz+XQF
yfBAny20AjktJlpvDHDZgZsDRaBBo66X/hzuHQkH4+gJJveWxBmFhQpOqPKaOGqk
S/6h+omip5dC78Ah2Ou7MdexLrBPP3oWbndEO76DAgMBAAGjVDBSMA4GA1UdDwEB
/wQEAwIFoDAMBgNVHRMBAf8EAjAAMBMGA1UdJQQMMAoGCCsGAQUFBwMCMB0GA1Ud
DgQWBBRVwyhqWiQ9MWwWF/W3XT+ep516AjANBgkqhkiG9w0BAQ0FAAOCAgEAfk2U
BbBDdqLZyBnyN+ZDuUBWcTAJKl7UHtBqfZcL9T41+twOzuOXjpnuxDix1y40tJzi
VDu0uTRwolhNNgTCuVIVe/yyvEr6HBcIzY2P3+yJQAtDOFT+LQj2nnPubTWmNg+e
9e1qL946yVzuJ0XO1yxKyq6OvFDipWZM3Aucq0kXUpvvXei2HhRRzgifCQdfkf2M
p+HsS8xV/Ra4GSBwGAr4w/sTuk01XxkJMHD9909OVX2v6G1ty1SITo3CdbVTaVpS
xMD9LMaFE8NCoGRJh9K5qpRNm5WdJ9pQnuc3kq6C/dAcUndKHzx/rV2q3Qvu2QlN
WDaYWq/WnSOrKNqm7tS8RRUbsVWbLFC/yA81Fz4CRUWHLpaZuNzV1SVZZZIV8KNj
S2LoN4gsP404GeM8fT5qssxQmd+S3xL7ygnOgJ9HMrm00OzJwC4FPYs8e0QiASNn
777fynIyv1syiZFQNpd+aZykkTnXpDcrrkwgdvYsagM+tgp4SoJv6fh/L+gf9TWK
gnKM//hOR/8ZeiuMbpBZFfsUsxpOduU8o8Dec5X+6Koby6FiphV8x1LXzjyrd2jn
Fe4BIqiD0JpHNYRJebqZyXuUolG1cSGyjGdhhAyICLBXHzWdA4f40Totq4Jiid8x
jW4TNRc0qDdrACdxSk8vyphLhZtjJdwUN/3Pyqo=
-----END CERTIFICATE-----
