Certificate:
    Data:
        Version: 3 (0x2)
        Serial Number: 37 (0x25)
    Signature Algorithm: sha512WithRSAEncryption
        Issuer: C=CA, ST=Qc, L=Quebec, O=My Org, OU=My Org Department, CN=My Org CA
        Validity
            Not Before: Dec 28 05:09:44 2014 GMT
            Not After : Dec 27 05:09:44 2024 GMT
        Subject: C=CA, ST=Qc, L=Quebec, O=My Org, OU=My Org Department, CN=hfowner
        Subject Public Key Info:
            Public Key Algorithm: rsaEncryption
                Public-Key: (4096 bit)
                Modulus:
                    00:a9:87:4f:2c:77:1e:26:31:f3:d8:9f:d3:aa:46:
                    dc:87:5d:3b:de:dd:e4:da:a1:23:07:4a:69:71:b1:
                    91:96:80:17:4c:30:2b:b9:1b:f6:bc:de:80:f6:1e:
                    6d:1b:a2:ca:9b:fb:a4:e3:e6:3e:4c:cf:ce:2c:20:
                    c0:fc:65:3a:1f:b3:d6:1e:69:2a:1f:06:1c:0a:db:
                    a7:7e:6f:c0:bd:14:ed:62:bd:fb:d9:d6:f4:e4:98:
                    98:b9:e1:e1:7b:30:79:1d:19:07:b6:80:8b:09:78:
                    ea:73:d0:69:69:41:1d:15:bd:c9:f6:de:ea:49:f6:
                    77:c3:0b:65:5e:ce:56:78:b4:d9:ed:8e:b9:27:0e:
                    ef:f0:f6:e1:f8:c6:f1:26:2b:ee:cc:a4:1a:ee:1f:
                    11:7e:29:ef:03:41:88:ca:1d:fa:6d:18:b3:a2:54:
                    fc:92:be:ec:2c:08:a4:81:0d:b1:a1:6e:85:0c:40:
                    ba:57:0d:bb:b2:00:c7:d9:bc:f4:f0:d3:5a:6f:09:
                    06:70:42:49:99:17:18:c9:38:3c:1f:81:d6:3f:df:
                    90:1e:82:84:83:91:d2:a7:87:6b:54:98:41:50:89:
                    e8:39:03:ca:09:6a:5c:cb:0c:c6:95:83:29:8a:2e:
                    bf:5e:53:b9:0d:03:94:8d:ac:80:73:56:64:43:7b:
                    c5:20:31:f7:fe:db:3e:da:15:72:de:14:3c:54:6a:
                    68:d2:fc:4b:d2:6e:aa:71:a2:ff:3c:8e:b4:ee:c5:
                    fb:05:07:31:b5:09:de:6c:95:23:cf:59:19:f6:61:
                    3a:5a:5e:f9:48:1c:47:c9:59:df:12:c7:bf:5f:1a:
                    7f:7a:6d:b7:82:26:71:ea:09:af:13:06:94:9d:27:
                    04:df:8c:44:d7:0e:c2:45:dc:7a:e2:04:95:9c:28:
                    b8:30:8b:9a:e4:d6:e5:51:61:f4:c4:16:65:1a:d5:
                    f8:3f:92:7d:6a:06:c6:74:9f:1a:3f:87:82:81:73:
                    9d:12:e3:28:cf:93:7c:07:00:66:2c:01:30:fa:a7:
                    39:e9:82:70:af:b5:00:a3:0c:95:35:34:b9:53:36:
                    67:51:67:7b:84:fd:f3:ca:a6:c2:e7:86:d8:86:b6:
                    93:24:70:f8:20:51:21:12:b4:98:c7:3e:20:7a:c2:
                    3f:b3:a2:2d:2f:63:ec:bc:82:ee:67:55:28:58:b1:
                    f3:e2:5b:64:3c:1d:ee:ff:39:64:29:03:54:20:1b:
                    38:46:f1:42:5e:f6:e6:b4:90:3d:5a:77:4d:de:54:
                    59:7b:f9:3c:a1:79:5f:0c:a9:3c:0c:3f:b7:96:b1:
                    72:26:d9:33:de:cd:aa:7b:de:7e:97:41:db:50:eb:
                    0c:ec:6b
                Exponent: 65537 (0x10001)
        X509v3 extensions:
            X509v3 Key Usage: critical
                Digital Signature, Key Encipherment
            X509v3 Basic Constraints: critical
                CA:FALSE
            X509v3 Extended Key Usage: 
                TLS Web Client Authentication
            X509v3 Subject Key Identifier: 
                13:30:F1:4D:EB:CE:60:7B:5D:EE:76:91:3E:FA:A8:27:59:E2:1B:ED
    Signature Algorithm: sha512WithRSAEncryption
         cd:f8:95:c5:37:ee:23:c0:3e:f5:43:a9:98:cc:01:0d:8e:6f:
         d7:5e:80:35:54:67:86:3a:ee:4d:83:f3:ee:88:1d:b5:02:ee:
         31:79:5f:04:cc:af:37:cc:4d:5a:7f:31:9f:47:a0:18:f1:2d:
         29:8f:c3:c1:5d:95:21:5b:ca:e0:3a:1d:8b:bd:78:a2:63:4e:
         71:55:bc:d3:fc:03:1c:fe:e6:7f:ee:82:33:1a:70:89:13:7c:
         0a:fd:4d:68:10:1e:21:14:46:73:0d:ad:c7:a4:d5:fb:72:7e:
         39:29:59:dc:36:68:7f:20:8a:d4:50:ad:35:3f:99:6d:85:1d:
         2d:80:68:d6:43:c4:56:34:91:e5:51:40:97:b1:b1:89:f9:1b:
         6d:09:52:4b:ae:06:74:1c:0c:a9:10:c9:62:10:05:00:2c:10:
         e2:ed:47:db:82:81:c3:73:61:cb:e1:9f:1c:f1:2e:35:2a:0f:
         81:ea:36:ca:9a:38:42:ee:ba:58:b4:89:94:ef:8b:ab:3a:79:
         7d:a8:ca:12:a4:8a:35:7f:ef:61:1b:9b:e9:61:b7:66:b6:6b:
         b7:44:bf:1b:74:08:dd:b7:23:b0:c4:63:e5:6e:80:b8:5c:74:
         60:c6:5d:e9:de:05:ce:c2:88:cb:10:a2:6e:03:8a:f1:e6:38:
         4d:d2:21:db:81:a2:3a:c6:e2:d8:b4:78:4a:f3:98:d1:e3:3a:
         39:43:10:08:af:6c:0f:89:3d:d1:99:60:1a:a2:07:b3:fb:7d:
         77:e0:a7:3a:94:91:a0:29:e8:d5:84:65:68:bb:e7:bd:98:e2:
         67:b8:28:56:d4:63:d8:7a:82:1d:01:ba:0c:13:b9:39:89:85:
         75:91:09:26:84:95:45:d8:05:4a:38:5c:8b:e4:bf:56:90:99:
         66:b1:86:56:d9:67:66:f3:ad:a4:78:87:d0:30:ca:f0:42:9d:
         64:c3:61:d4:f7:ba:b7:e5:ad:51:e2:9b:cc:23:53:73:80:18:
         e5:8c:10:43:c5:1f:b6:31:8b:08:ea:b7:ad:b6:96:8a:4c:65:
         e6:9a:af:7d:5c:07:23:a2:e8:b3:16:1e:ea:2b:f7:0e:71:a5:
         4e:b3:22:07:b6:1b:c5:64:1d:ff:de:83:a6:92:a6:54:15:41:
         9f:84:4c:40:0f:d0:4d:58:30:c6:3e:f7:36:be:f9:82:5b:b7:
         40:f5:ec:48:23:f0:cd:2f:cd:c0:7a:a3:8f:d3:4d:9f:3d:c8:
         01:61:65:27:27:75:f6:16:fc:9f:73:03:bd:aa:48:ee:ef:82:
         8e:00:12:c4:e0:27:3b:6b:4c:57:57:b0:ad:d1:e5:2f:53:07:
         67:b6:ab:df:52:38:aa:fe
-----BEGIN CERTIFICATE-----
MIIFpTCCA42gAwIBAgIBJTANBgkqhkiG9w0BAQ0FADBsMQswCQYDVQQGEwJDQTEL
MAkGA1UECAwCUWMxDzANBgNVBAcMBlF1ZWJlYzEPMA0GA1UECgwGTXkgT3JnMRow
GAYDVQQLDBFNeSBPcmcgRGVwYXJ0bWVudDESMBAGA1UEAwwJTXkgT3JnIENBMB4X
DTE0MTIyODA1MDk0NFoXDTI0MTIyNzA1MDk0NFowajELMAkGA1UEBhMCQ0ExCzAJ
BgNVBAgMAlFjMQ8wDQYDVQQHDAZRdWViZWMxDzANBgNVBAoMBk15IE9yZzEaMBgG
A1UECwwRTXkgT3JnIERlcGFydG1lbnQxEDAOBgNVBAMMB2hmb3duZXIwggIiMA0G
CSqGSIb3DQEBAQUAA4ICDwAwggIKAoICAQCph08sdx4mMfPYn9OqRtyHXTve3eTa
oSMHSmlxsZGWgBdMMCu5G/a83oD2Hm0bosqb+6Tj5j5Mz84sIMD8ZTofs9YeaSof
BhwK26d+b8C9FO1ivfvZ1vTkmJi54eF7MHkdGQe2gIsJeOpz0GlpQR0Vvcn23upJ
9nfDC2VezlZ4tNntjrknDu/w9uH4xvEmK+7MpBruHxF+Ke8DQYjKHfptGLOiVPyS
vuwsCKSBDbGhboUMQLpXDbuyAMfZvPTw01pvCQZwQkmZFxjJODwfgdY/35AegoSD
kdKnh2tUmEFQieg5A8oJalzLDMaVgymKLr9eU7kNA5SNrIBzVmRDe8UgMff+2z7a
FXLeFDxUamjS/EvSbqpxov88jrTuxfsFBzG1Cd5slSPPWRn2YTpaXvlIHEfJWd8S
x79fGn96bbeCJnHqCa8TBpSdJwTfjETXDsJF3HriBJWcKLgwi5rk1uVRYfTEFmUa
1fg/kn1qBsZ0nxo/h4KBc50S4yjPk3wHAGYsATD6pznpgnCvtQCjDJU1NLlTNmdR
Z3uE/fPKpsLnhtiGtpMkcPggUSEStJjHPiB6wj+zoi0vY+y8gu5nVShYsfPiW2Q8
He7/OWQpA1QgGzhG8UJe9ua0kD1ad03eVFl7+TyheV8MqTwMP7eWsXIm2TPezap7
3n6XQdtQ6wzsawIDAQABo1QwUjAOBgNVHQ8BAf8EBAMCBaAwDAYDVR0TAQH/BAIw
ADATBgNVHSUEDDAKBggrBgEFBQcDAjAdBgNVHQ4EFgQUEzDxTevOYHtd7naRPvqo
J1niG+0wDQYJKoZIhvcNAQENBQADggIBAM34lcU37iPAPvVDqZjMAQ2Ob9degDVU
Z4Y67k2D8+6IHbUC7jF5XwTMrzfMTVp/MZ9HoBjxLSmPw8FdlSFbyuA6HYu9eKJj
TnFVvNP8Axz+5n/ugjMacIkTfAr9TWgQHiEURnMNrcek1ftyfjkpWdw2aH8gitRQ
rTU/mW2FHS2AaNZDxFY0keVRQJexsYn5G20JUkuuBnQcDKkQyWIQBQAsEOLtR9uC
gcNzYcvhnxzxLjUqD4HqNsqaOELuuli0iZTvi6s6eX2oyhKkijV/72Ebm+lht2a2
a7dEvxt0CN23I7DEY+VugLhcdGDGXeneBc7CiMsQom4DivHmOE3SIduBojrG4ti0
eErzmNHjOjlDEAivbA+JPdGZYBqiB7P7fXfgpzqUkaAp6NWEZWi7572Y4me4KFbU
Y9h6gh0BugwTuTmJhXWRCSaElUXYBUo4XIvkv1aQmWaxhlbZZ2bzraR4h9AwyvBC
nWTDYdT3urflrVHim8wjU3OAGOWMEEPFH7Yxiwjqt622lopMZeaar31cByOi6LMW
Huor9w5xpU6zIge2G8VkHf/eg6aSplQVQZ+ETEAP0E1YMMY+9za++YJbt0D17Egj
8M0vzcB6o4/TTZ89yAFhZScndfYW/J9zA72qSO7vgo4AEsTgJztrTFdXsK3R5S9T
B2e2q99SOKr+
-----END CERTIFICATE-----
