Certificate:
    Data:
        Version: 3 (0x2)
        Serial Number: 34 (0x22)
    Signature Algorithm: sha512WithRSAEncryption
        Issuer: C=CA, ST=Qc, L=Quebec, O=My Org, OU=My Org Department, CN=My Org CA
        Validity
            Not Before: Dec 28 05:09:17 2014 GMT
            Not After : Dec 27 05:09:17 2024 GMT
        Subject: C=CA, ST=Qc, L=Quebec, O=My Org, OU=My Org Department, CN=player
        Subject Public Key Info:
            Public Key Algorithm: rsaEncryption
                Public-Key: (4096 bit)
                Modulus:
                    00:c6:92:2f:35:b9:a5:74:45:7e:f0:47:f5:a7:28:
                    38:9f:5d:68:4f:86:08:8c:a6:b3:90:22:e7:07:e1:
                    2c:6d:a0:03:2b:d6:25:06:81:b0:dd:51:44:41:17:
                    4b:fc:4c:ca:6e:3c:70:5c:0e:e3:4f:6f:7c:5f:3d:
                    f8:db:19:d9:97:b4:df:ae:24:5f:0b:92:5d:2e:3d:
                    d6:39:51:06:96:03:15:cf:63:7d:20:43:44:21:f8:
                    a1:1d:7f:81:01:b0:ba:5a:a1:51:97:86:77:65:7b:
                    2f:00:61:ce:03:5f:0c:46:d0:4a:b9:53:e9:ba:96:
                    72:46:dd:c3:f1:e9:81:c3:49:fc:ee:af:f7:6f:9e:
                    c1:a2:4a:ff:e0:dd:45:ba:d1:7b:03:9b:09:0c:f1:
                    ca:86:c2:ca:a8:0b:f0:a0:77:96:04:3d:1d:19:e8:
                    55:2a:5b:a5:b7:cb:b7:bf:26:0e:8d:3f:29:1f:2e:
                    36:b0:c0:5e:4b:41:c9:d0:bc:dd:a7:5e:62:03:8e:
                    e4:04:5d:f5:46:22:58:c7:5c:4e:1e:43:bb:03:be:
                    4a:2a:71:dd:06:b5:6b:63:35:9f:e0:cf:14:e6:fd:
                    23:bd:e7:e7:a9:be:e3:68:90:e9:1b:c2:97:8a:1b:
                    b2:b0:61:a0:60:4f:65:57:d3:27:d4:55:f7:80:69:
                    b9:89:82:01:99:92:5f:12:dd:b8:4e:bc:a9:b7:81:
                    26:9f:15:f2:d1:d3:20:f7:bd:82:a2:5b:e9:5c:90:
                    4f:68:eb:c9:11:71:9b:cb:7a:e5:a2:6f:ce:9d:0c:
                    64:75:92:ae:8a:a8:7c:80:01:f5:90:f5:0d:39:c5:
                    69:c4:70:12:66:47:eb:20:1a:97:86:b8:42:53:14:
                    4e:78:dc:1f:ab:71:08:30:80:19:51:82:57:86:41:
                    e3:a3:95:68:d2:e9:2b:f2:74:33:48:66:4f:90:1b:
                    29:09:9f:78:bd:03:60:3e:e0:0a:19:91:92:2a:bc:
                    44:3c:87:4b:38:63:07:11:05:4b:92:2f:56:07:44:
                    d9:aa:82:09:e3:ce:f4:65:d4:bc:02:ee:07:73:d0:
                    35:ed:60:2b:44:b6:08:95:ba:96:39:8a:12:24:60:
                    9f:e6:ba:b4:16:09:93:2c:d8:fc:00:25:3b:d5:1b:
                    08:f4:e4:e3:47:c7:57:7a:a6:ac:bf:c9:b0:f0:48:
                    a2:1d:21:c9:9a:8c:79:fd:2c:b6:5a:7e:86:f2:09:
                    b1:e5:c3:f4:c2:98:76:0c:e9:47:d4:52:d6:4b:52:
                    71:f4:65:a2:da:6f:0d:e6:25:3e:67:47:b3:a5:35:
                    4d:99:94:33:dc:0b:d9:d6:c1:07:54:6e:57:3b:16:
                    aa:a8:b9
                Exponent: 65537 (0x10001)
        X509v3 extensions:
            X509v3 Key Usage: critical
                Digital Signature, Key Encipherment
            X509v3 Basic Constraints: critical
                CA:FALSE
            X509v3 Extended Key Usage: 
                TLS Web Client Authentication
            X509v3 Subject Key Identifier: 
                FB:48:1E:C4:C1:2E:C6:05:B7:D6:3E:F4:94:51:37:A9:D2:F4:B2:F2
    Signature Algorithm: sha512WithRSAEncryption
         05:79:05:f1:c9:04:fb:08:39:b3:c8:ff:d0:34:80:a8:2c:15:
         12:fe:d4:bc:44:d6:da:3e:54:bb:eb:4f:f2:26:63:ec:16:08:
         97:a4:f7:0d:b6:d3:c5:9d:14:8b:8f:c2:9e:56:8c:04:56:bf:
         c0:b3:98:a9:75:46:ec:c2:47:f1:a2:19:4a:8d:b2:b3:7c:0a:
         9a:8d:28:3c:61:66:b4:a1:45:af:b7:5c:a4:b7:cd:46:b0:9d:
         a0:6a:bc:81:e3:90:4d:8d:f2:da:2b:83:15:c3:2c:35:8f:f3:
         77:d2:f6:c7:c4:a2:11:05:66:7f:39:57:ee:d6:cf:a9:ef:ed:
         c4:3a:6f:85:86:22:a7:94:48:4d:b3:67:33:b9:d0:05:7f:ee:
         6d:92:5c:c4:d7:20:87:87:b2:a0:90:f0:65:81:f7:a9:26:bc:
         e5:62:48:8f:c4:cf:8b:bb:a5:7d:c1:bf:1e:72:08:19:0c:50:
         23:df:fe:1e:23:22:1f:08:78:a0:ab:62:29:77:9e:19:51:61:
         10:72:d0:31:9d:b1:04:fa:ed:92:3f:7d:c8:e0:a8:a1:21:6f:
         30:99:54:0b:0d:0c:5c:26:4e:6e:43:20:73:a0:01:81:b1:7f:
         b1:62:84:83:30:e7:a1:9a:53:85:a1:d0:e6:90:bb:47:d2:6a:
         0f:95:ca:5b:f2:cf:a5:0c:e6:0a:13:e1:85:12:0b:fd:9d:c1:
         1e:da:2e:e8:f7:88:f7:57:97:e2:24:4d:cc:86:57:64:92:9b:
         6a:71:ed:1e:12:e3:4b:c9:53:fc:25:06:58:85:10:d0:f0:4e:
         1e:b7:22:56:cf:ff:46:77:87:84:f4:eb:c9:a0:ef:65:4c:dc:
         ea:a4:84:a6:78:47:6a:92:7e:f8:0e:84:03:51:1c:35:35:c6:
         83:20:0b:c8:ef:27:ec:6d:19:fe:01:46:7c:1b:d3:74:57:90:
         63:c5:10:f2:1c:85:c7:39:63:ed:33:31:38:9a:d3:33:63:bf:
         22:e4:14:72:e4:ac:fd:37:89:3d:55:b2:4c:8f:c9:52:e2:15:
         cc:a7:ef:6a:3b:82:82:8a:9e:af:76:d9:3f:16:68:5c:94:58:
         2d:3a:09:92:30:e2:47:87:7b:9f:7e:6d:bf:a1:7f:44:4d:c4:
         5a:88:ee:8f:cc:86:b1:eb:4e:0f:15:a4:4a:62:ad:42:8e:cb:
         96:b5:65:00:4d:1d:e4:d0:0d:99:69:b8:11:24:63:5d:d7:55:
         bb:fa:be:f4:b8:4c:0d:ba:98:a2:c2:7e:9b:b7:92:13:1b:a8:
         55:89:f6:2a:99:c7:43:a3:8b:74:f9:af:e7:e3:e8:3d:9e:8d:
         cc:87:2f:41:36:d2:7a:c4
-----BEGIN CERTIFICATE-----
MIIFpDCCA4ygAwIBAgIBIjANBgkqhkiG9w0BAQ0FADBsMQswCQYDVQQGEwJDQTEL
MAkGA1UECAwCUWMxDzANBgNVBAcMBlF1ZWJlYzEPMA0GA1UECgwGTXkgT3JnMRow
GAYDVQQLDBFNeSBPcmcgRGVwYXJ0bWVudDESMBAGA1UEAwwJTXkgT3JnIENBMB4X
DTE0MTIyODA1MDkxN1oXDTI0MTIyNzA1MDkxN1owaTELMAkGA1UEBhMCQ0ExCzAJ
BgNVBAgMAlFjMQ8wDQYDVQQHDAZRdWViZWMxDzANBgNVBAoMBk15IE9yZzEaMBgG
A1UECwwRTXkgT3JnIERlcGFydG1lbnQxDzANBgNVBAMMBnBsYXllcjCCAiIwDQYJ
KoZIhvcNAQEBBQADggIPADCCAgoCggIBAMaSLzW5pXRFfvBH9acoOJ9daE+GCIym
s5Ai5wfhLG2gAyvWJQaBsN1RREEXS/xMym48cFwO409vfF89+NsZ2Ze0364kXwuS
XS491jlRBpYDFc9jfSBDRCH4oR1/gQGwulqhUZeGd2V7LwBhzgNfDEbQSrlT6bqW
ckbdw/HpgcNJ/O6v92+ewaJK/+DdRbrRewObCQzxyobCyqgL8KB3lgQ9HRnoVSpb
pbfLt78mDo0/KR8uNrDAXktBydC83adeYgOO5ARd9UYiWMdcTh5DuwO+Sipx3Qa1
a2M1n+DPFOb9I73n56m+42iQ6RvCl4obsrBhoGBPZVfTJ9RV94BpuYmCAZmSXxLd
uE68qbeBJp8V8tHTIPe9gqJb6VyQT2jryRFxm8t65aJvzp0MZHWSroqofIAB9ZD1
DTnFacRwEmZH6yAal4a4QlMUTnjcH6txCDCAGVGCV4ZB46OVaNLpK/J0M0hmT5Ab
KQmfeL0DYD7gChmRkiq8RDyHSzhjBxEFS5IvVgdE2aqCCePO9GXUvALuB3PQNe1g
K0S2CJW6ljmKEiRgn+a6tBYJkyzY/AAlO9UbCPTk40fHV3qmrL/JsPBIoh0hyZqM
ef0stlp+hvIJseXD9MKYdgzpR9RS1ktScfRlotpvDeYlPmdHs6U1TZmUM9wL2dbB
B1RuVzsWqqi5AgMBAAGjVDBSMA4GA1UdDwEB/wQEAwIFoDAMBgNVHRMBAf8EAjAA
MBMGA1UdJQQMMAoGCCsGAQUFBwMCMB0GA1UdDgQWBBT7SB7EwS7GBbfWPvSUUTep
0vSy8jANBgkqhkiG9w0BAQ0FAAOCAgEABXkF8ckE+wg5s8j/0DSAqCwVEv7UvETW
2j5Uu+tP8iZj7BYIl6T3DbbTxZ0Ui4/CnlaMBFa/wLOYqXVG7MJH8aIZSo2ys3wK
mo0oPGFmtKFFr7dcpLfNRrCdoGq8geOQTY3y2iuDFcMsNY/zd9L2x8SiEQVmfzlX
7tbPqe/txDpvhYYip5RITbNnM7nQBX/ubZJcxNcgh4eyoJDwZYH3qSa85WJIj8TP
i7ulfcG/HnIIGQxQI9/+HiMiHwh4oKtiKXeeGVFhEHLQMZ2xBPrtkj99yOCooSFv
MJlUCw0MXCZObkMgc6ABgbF/sWKEgzDnoZpThaHQ5pC7R9JqD5XKW/LPpQzmChPh
hRIL/Z3BHtou6PeI91eX4iRNzIZXZJKbanHtHhLjS8lT/CUGWIUQ0PBOHrciVs//
RneHhPTryaDvZUzc6qSEpnhHapJ++A6EA1EcNTXGgyALyO8n7G0Z/gFGfBvTdFeQ
Y8UQ8hyFxzlj7TMxOJrTM2O/IuQUcuSs/TeJPVWyTI/JUuIVzKfvajuCgoqer3bZ
PxZoXJRYLToJkjDiR4d7n35tv6F/RE3EWojuj8yGsetODxWkSmKtQo7LlrVlAE0d
5NANmWm4ESRjXddVu/q+9LhMDbqYosJ+m7eSExuoVYn2KpnHQ6OLdPmv5+PoPZ6N
zIcvQTbSesQ=
-----END CERTIFICATE-----
