Certificate:
    Data:
        Version: 3 (0x2)
        Serial Number: 2 (0x2)
    Signature Algorithm: sha512WithRSAEncryption
        Issuer: DC=hf, O=Hackfest 2014, OU=Hackfest scoreboard root CA, CN=Hackfest scoreboard root CA
        Validity
            Not Before: Oct  4 20:05:48 2014 GMT
            Not After : Oct  3 20:05:48 2016 GMT
        Subject: DC=hf, O=Hackfest 2014, OU=Hackfest scoreboard client CA, CN=hfowner
        Subject Public Key Info:
            Public Key Algorithm: rsaEncryption
                Public-Key: (4096 bit)
                Modulus:
                    00:ca:15:ff:21:ce:fa:ed:5b:3a:cd:c2:59:c0:30:
                    cd:63:74:52:02:57:27:4b:55:0b:5c:9a:28:e2:44:
                    e8:d6:51:63:f1:65:2c:a8:ba:f9:fa:e0:0d:b3:9f:
                    c7:df:01:0e:11:d7:2d:83:03:be:aa:2b:93:14:92:
                    2e:ec:3c:8f:02:95:2c:eb:e3:11:09:b2:f0:32:31:
                    b3:6d:b6:27:b0:16:0e:57:e0:19:e7:2a:91:4f:31:
                    a6:05:e0:ad:03:25:1c:52:cb:51:42:a2:f2:f2:8d:
                    32:ec:46:36:96:48:b2:40:7f:d5:bf:9e:28:e8:d4:
                    23:8e:45:80:49:74:c6:42:6c:e7:f9:ca:23:6c:e4:
                    10:41:7f:d0:9d:ca:78:5b:e6:c3:b4:e4:5e:f8:10:
                    59:f9:4c:00:38:74:a5:e0:27:50:f0:5e:55:ec:b8:
                    22:a2:53:a8:2c:2b:82:10:24:ef:29:96:59:67:56:
                    02:74:e3:22:52:7f:38:40:bd:2e:6e:99:fb:93:ea:
                    ae:42:6e:e6:3f:83:0b:1e:7e:32:4f:37:85:75:ac:
                    40:be:58:62:b0:62:83:38:ad:b3:87:d5:46:86:7c:
                    24:7c:0e:ea:80:47:51:36:6f:14:43:4b:48:61:ff:
                    b9:d6:ec:b7:17:7b:a4:8e:15:87:13:2b:54:a8:b7:
                    c8:62:cf:ee:7d:2a:76:ac:7f:2f:82:80:16:85:8e:
                    1b:21:28:7d:5f:ca:77:99:0d:7c:a4:fd:38:85:40:
                    16:67:d4:79:f9:17:92:48:3b:0e:02:e9:0c:e0:58:
                    7c:01:3c:c0:d3:50:17:4d:17:0d:c4:77:54:ad:f6:
                    61:38:5a:3a:7b:a3:72:ad:71:1a:d5:45:35:b2:6c:
                    79:d5:19:a1:c2:0d:e3:9b:6d:2f:7c:9f:75:37:78:
                    d0:5c:60:b9:e0:67:ee:f2:f4:81:13:e7:08:f4:ae:
                    1f:0c:8a:3b:99:98:72:ce:d4:f3:5b:56:be:42:ab:
                    c0:27:26:bf:d5:df:25:08:36:24:30:11:65:52:33:
                    2d:9a:c7:94:c0:9f:70:40:4f:b2:83:f3:46:4a:5f:
                    c8:96:12:63:80:ba:ab:07:f0:76:0a:c0:7e:8a:1a:
                    9b:c3:0c:f1:bb:c2:8f:ee:cf:e7:e0:4e:d9:66:23:
                    ad:97:18:68:31:f0:0e:cf:9c:00:b3:ca:b6:ef:b0:
                    16:b2:87:78:05:27:cd:0f:9d:92:d0:47:63:f3:10:
                    e1:c3:4c:6d:a7:92:0a:4c:78:30:22:66:8d:2b:9f:
                    71:e3:34:d2:fb:14:dd:9e:d3:a0:20:16:a8:ca:08:
                    98:b5:dd:e2:5f:ab:62:d6:88:cc:64:79:89:51:a1:
                    b8:5d:ff
                Exponent: 65537 (0x10001)
        X509v3 extensions:
            X509v3 Key Usage: critical
                Digital Signature, Key Encipherment
            X509v3 Basic Constraints: 
                CA:FALSE
            X509v3 Extended Key Usage: 
                TLS Web Server Authentication, TLS Web Client Authentication
            X509v3 Subject Key Identifier: 
                30:F7:5D:C5:DC:55:E1:4B:DD:D8:83:3C:F3:7A:BE:C5:5F:94:9E:9F
            X509v3 Authority Key Identifier: 
                keyid:36:00:4E:00:7F:AA:0E:17:89:5C:17:D7:50:86:8E:A4:01:EE:06:DB

            X509v3 Subject Alternative Name: 
                DNS:scoreboard.hf
    Signature Algorithm: sha512WithRSAEncryption
         65:9f:36:5a:be:65:48:2b:d3:5c:7a:42:a1:ce:37:cf:ac:1a:
         bf:81:c0:ae:94:4a:2e:a7:4e:3a:f2:21:8c:af:1a:53:50:18:
         81:ca:59:24:79:73:48:25:f2:92:8c:11:49:56:f2:db:4f:bf:
         d7:b7:24:7b:cc:19:b0:7e:0d:af:ab:04:ea:97:13:13:5d:60:
         56:8a:2c:38:ca:e8:ad:34:9b:cd:05:7c:00:05:12:9a:93:f8:
         a9:0b:46:e4:d9:3f:8c:31:33:a9:07:dc:77:fa:c4:8f:df:a5:
         e7:a1:69:73:58:89:9c:5a:90:6f:97:1f:4e:bd:2c:d2:b3:f8:
         6a:83:9d:97:9b:38:f3:5b:23:54:d4:69:1d:ba:ee:ac:45:03:
         d2:23:d3:37:a2:35:b9:27:f2:cd:f4:a5:92:dc:da:1d:2c:44:
         e9:21:5b:6a:ab:7b:4c:00:79:06:27:19:5b:6b:98:41:82:7b:
         c3:8e:0b:ba:e1:2a:98:cf:18:4a:74:01:e1:a0:cb:e3:1c:4b:
         bf:0b:61:80:5d:89:e8:29:4a:1c:82:0d:83:2a:34:34:b9:11:
         92:a9:23:bb:07:b4:09:75:fb:a7:a8:fe:32:aa:da:93:39:99:
         4f:10:39:27:bc:81:10:63:73:78:ae:e0:b8:70:1d:a0:b2:d0:
         3d:fe:80:81:3d:70:2d:e5:06:e3:c4:63:a1:f3:56:84:cd:77:
         44:9c:10:85:a6:af:04:ba:7a:59:5d:26:f1:48:85:d5:d6:f5:
         e9:28:72:e8:d6:9c:6e:ba:4b:4f:b6:b2:7e:93:9a:5e:16:85:
         38:04:58:ab:9e:39:c8:ed:3e:60:29:36:73:e4:92:07:84:2a:
         09:03:98:cf:ce:d1:e2:e5:2a:0d:83:ef:59:57:a8:f2:88:73:
         01:a9:26:c6:c1:6f:ec:ca:8e:5d:af:73:5e:27:d0:5d:89:14:
         2d:84:8c:25:34:a5:1c:a6:e1:b0:6c:d4:56:59:0b:55:d4:7f:
         e1:12:18:d0:91:b7:d2:af:31:77:f0:5d:e3:61:e8:9d:5e:14:
         71:dc:25:5e:32:f5:29:f7:12:dd:3f:cd:49:b5:0b:11:89:6d:
         eb:b3:86:fa:40:3a:50:54:84:0a:e4:53:09:23:f3:61:60:aa:
         be:54:ee:63:ae:eb:18:78:b1:ac:65:5e:bb:ac:c0:b0:38:c7:
         e3:ad:52:5f:c5:96:81:78:4f:b2:b9:4c:84:f1:af:98:12:72:
         97:f3:9d:7b:8f:62:16:79:f6:f1:e7:1f:9b:68:17:e0:e3:16:
         bd:63:b1:07:87:30:84:53:74:cd:f3:0b:37:52:e7:35:e3:62:
         98:75:57:0f:67:aa:f3:3a
-----BEGIN CERTIFICATE-----
MIIF8TCCA9mgAwIBAgIBAjANBgkqhkiG9w0BAQ0FADB4MRIwEAYKCZImiZPyLGQB
GRYCaGYxFjAUBgNVBAoMDUhhY2tmZXN0IDIwMTQxJDAiBgNVBAsMG0hhY2tmZXN0
IHNjb3JlYm9hcmQgcm9vdCBDQTEkMCIGA1UEAwwbSGFja2Zlc3Qgc2NvcmVib2Fy
ZCByb290IENBMB4XDTE0MTAwNDIwMDU0OFoXDTE2MTAwMzIwMDU0OFowZjESMBAG
CgmSJomT8ixkARkWAmhmMRYwFAYDVQQKDA1IYWNrZmVzdCAyMDE0MSYwJAYDVQQL
DB1IYWNrZmVzdCBzY29yZWJvYXJkIGNsaWVudCBDQTEQMA4GA1UEAwwHaGZvd25l
cjCCAiIwDQYJKoZIhvcNAQEBBQADggIPADCCAgoCggIBAMoV/yHO+u1bOs3CWcAw
zWN0UgJXJ0tVC1yaKOJE6NZRY/FlLKi6+frgDbOfx98BDhHXLYMDvqorkxSSLuw8
jwKVLOvjEQmy8DIxs222J7AWDlfgGecqkU8xpgXgrQMlHFLLUUKi8vKNMuxGNpZI
skB/1b+eKOjUI45FgEl0xkJs5/nKI2zkEEF/0J3KeFvmw7TkXvgQWflMADh0peAn
UPBeVey4IqJTqCwrghAk7ymWWWdWAnTjIlJ/OEC9Lm6Z+5PqrkJu5j+DCx5+Mk83
hXWsQL5YYrBigzits4fVRoZ8JHwO6oBHUTZvFENLSGH/udbstxd7pI4VhxMrVKi3
yGLP7n0qdqx/L4KAFoWOGyEofV/Kd5kNfKT9OIVAFmfUefkXkkg7DgLpDOBYfAE8
wNNQF00XDcR3VK32YThaOnujcq1xGtVFNbJsedUZocIN45ttL3yfdTd40FxgueBn
7vL0gRPnCPSuHwyKO5mYcs7U81tWvkKrwCcmv9XfJQg2JDARZVIzLZrHlMCfcEBP
soPzRkpfyJYSY4C6qwfwdgrAfooam8MM8bvCj+7P5+BO2WYjrZcYaDHwDs+cALPK
tu+wFrKHeAUnzQ+dktBHY/MQ4cNMbaeSCkx4MCJmjSufceM00vsU3Z7ToCAWqMoI
mLXd4l+rYtaIzGR5iVGhuF3/AgMBAAGjgZcwgZQwDgYDVR0PAQH/BAQDAgWgMAkG
A1UdEwQCMAAwHQYDVR0lBBYwFAYIKwYBBQUHAwEGCCsGAQUFBwMCMB0GA1UdDgQW
BBQw913F3FXhS93Ygzzzer7FX5SenzAfBgNVHSMEGDAWgBQ2AE4Af6oOF4lcF9dQ
ho6kAe4G2zAYBgNVHREEETAPgg1zY29yZWJvYXJkLmhmMA0GCSqGSIb3DQEBDQUA
A4ICAQBlnzZavmVIK9NcekKhzjfPrBq/gcCulEoup0468iGMrxpTUBiBylkkeXNI
JfKSjBFJVvLbT7/XtyR7zBmwfg2vqwTqlxMTXWBWiiw4yuitNJvNBXwABRKak/ip
C0bk2T+MMTOpB9x3+sSP36XnoWlzWImcWpBvlx9OvSzSs/hqg52XmzjzWyNU1Gkd
uu6sRQPSI9M3ojW5J/LN9KWS3NodLETpIVtqq3tMAHkGJxlba5hBgnvDjgu64SqY
zxhKdAHhoMvjHEu/C2GAXYnoKUocgg2DKjQ0uRGSqSO7B7QJdfunqP4yqtqTOZlP
EDknvIEQY3N4ruC4cB2gstA9/oCBPXAt5QbjxGOh81aEzXdEnBCFpq8EunpZXSbx
SIXV1vXpKHLo1pxuuktPtrJ+k5peFoU4BFirnjnI7T5gKTZz5JIHhCoJA5jPztHi
5SoNg+9ZV6jyiHMBqSbGwW/syo5dr3NeJ9BdiRQthIwlNKUcpuGwbNRWWQtV1H/h
EhjQkbfSrzF38F3jYeidXhRx3CVeMvUp9xLdP81JtQsRiW3rs4b6QDpQVIQK5FMJ
I/NhYKq+VO5jrusYeLGsZV67rMCwOMfjrVJfxZaBeE+yuUyE8a+YEnKX8517j2IW
efbx5x+baBfg4xa9Y7EHhzCEU3TN8ws3Uuc142KYdVcPZ6rzOg==
-----END CERTIFICATE-----
