Certificate:
    Data:
        Version: 3 (0x2)
        Serial Number: 34 (0x22)
    Signature Algorithm: sha512WithRSAEncryption
        Issuer: C=CA, ST=Qc, L=Quebec, O=My Org, OU=My Org Department, CN=My Org CA
        Validity
            Not Before: Dec 28 04:26:34 2014 GMT
            Not After : Dec 27 04:26:34 2024 GMT
        Subject: C=CA, ST=Qc, L=Quebec, O=My Org, OU=My Org Department, CN=cli.psql.scoreboard.player
        Subject Public Key Info:
            Public Key Algorithm: rsaEncryption
                Public-Key: (4096 bit)
                Modulus:
                    00:cc:da:11:02:51:27:f9:3d:48:b5:1d:94:b3:4c:
                    bc:9c:c7:b9:63:77:56:2a:2b:04:c6:93:72:3c:1e:
                    29:cf:a5:d2:90:65:c8:4b:8e:fc:43:f5:08:65:26:
                    f2:5c:3d:e4:2d:54:56:60:7b:ff:60:84:ff:fe:dc:
                    d1:ed:72:59:73:11:7b:42:e7:80:ff:3b:20:b1:30:
                    63:83:ea:33:ed:5d:b8:fd:c3:79:8d:16:67:24:c7:
                    e2:0e:60:f5:3b:60:c0:d4:71:ec:06:cf:8a:fe:80:
                    d5:18:98:2d:1d:40:1c:0d:c7:bc:d6:b2:1c:23:16:
                    44:2e:e2:e5:69:95:88:56:31:e5:11:41:b6:97:be:
                    36:3c:88:9b:e0:d0:d4:6d:7c:19:00:37:c5:ed:43:
                    72:08:f8:6b:cf:1e:23:0e:c9:33:38:0d:7b:fa:f8:
                    1b:3f:f8:92:e8:e2:12:8f:ff:b7:77:65:ab:ea:e7:
                    ec:3c:c9:41:2e:b1:b6:b3:ed:ac:e8:cb:4b:e8:c2:
                    06:8e:4d:65:50:b9:66:2c:af:39:21:14:d7:09:05:
                    70:2f:31:85:cf:51:d4:58:0a:2e:fc:09:06:7e:f3:
                    56:b7:c1:c3:41:60:ce:d9:07:f7:06:db:d6:c0:12:
                    f7:3f:8d:fc:17:43:06:a5:fe:d9:42:90:44:53:89:
                    6e:2a:ca:c9:39:43:3c:d8:de:50:c1:37:a7:d7:d4:
                    99:ca:da:82:5a:f4:0c:84:b3:99:2c:f1:23:78:d7:
                    e5:62:16:61:87:7e:60:14:75:b2:fa:69:ee:5e:a4:
                    58:e8:f5:63:c2:22:3e:73:85:1d:fe:61:ac:60:8d:
                    cc:d8:72:b9:76:6f:9f:86:a0:84:08:ae:37:10:9a:
                    36:cf:b2:97:af:a6:aa:4b:5e:8a:c9:18:65:1e:7c:
                    2c:a7:80:67:dc:b7:d8:f7:75:f4:88:25:e3:67:02:
                    e9:43:78:4c:30:c1:7f:ff:04:cc:54:e3:d2:68:be:
                    a6:98:12:81:0b:b9:b7:55:42:43:b0:d2:60:d4:47:
                    a9:40:79:95:70:24:b3:fb:16:de:c8:3d:70:9c:6c:
                    0a:40:e5:db:89:5e:d9:75:a2:c5:ab:14:7f:5d:08:
                    04:a1:24:85:cd:68:ff:22:a2:b4:93:42:05:e7:c2:
                    fb:cb:27:e2:64:22:68:a2:1c:ed:4b:04:52:90:cf:
                    cf:10:31:72:81:2c:4a:c5:44:93:d0:6c:26:b9:09:
                    68:fd:1d:ac:db:f2:ce:27:f9:82:0f:b2:79:7f:0d:
                    e7:ca:f4:86:71:38:e0:35:e1:8e:7c:e9:21:81:fa:
                    18:55:9c:78:d4:03:c8:ce:79:22:b0:2d:49:a4:3f:
                    c7:da:d7
                Exponent: 65537 (0x10001)
        X509v3 extensions:
            X509v3 Key Usage: critical
                Digital Signature, Key Encipherment
            X509v3 Basic Constraints: critical
                CA:FALSE
            X509v3 Extended Key Usage: 
                TLS Web Client Authentication
            X509v3 Subject Key Identifier: 
                F2:05:FA:90:24:03:1F:6E:30:E5:44:DB:83:EB:8F:20:8A:7C:72:5B
    Signature Algorithm: sha512WithRSAEncryption
         51:a4:7c:d4:db:15:f1:86:b3:b4:d7:17:ca:12:0f:10:08:9f:
         39:0a:2f:17:3e:2b:94:ca:7e:0f:de:e5:3d:9a:ac:70:e5:6e:
         6e:82:2a:4b:09:b7:1b:5f:af:74:f1:27:1e:7c:de:30:a9:fa:
         4b:a0:13:83:f4:08:37:71:4d:2e:e4:6c:2f:7e:34:32:ca:82:
         dd:88:cd:ab:b1:a7:8b:22:22:6a:f4:da:24:c1:ee:2d:dc:f1:
         7f:cf:7c:0d:6c:8c:81:16:6b:c8:ac:e8:3c:5e:1e:5c:a0:01:
         5f:bf:a4:31:de:31:17:97:be:a7:6a:a2:fe:e4:89:c8:bf:b0:
         55:8f:4a:2b:cd:3d:f8:6c:e0:b0:46:62:6f:da:7b:59:fb:ce:
         be:f5:00:00:ba:49:10:f1:21:64:fa:30:35:83:7a:75:3a:a3:
         c1:41:c8:0d:77:79:b2:aa:09:69:eb:b8:a9:5b:b7:df:0e:90:
         12:7b:e2:63:cc:cf:c6:2a:38:54:de:d7:1a:33:b8:4e:01:a4:
         05:7b:5a:fa:98:3b:05:00:5f:b5:7c:3c:92:2b:72:cb:16:8c:
         fc:0e:29:5a:58:88:30:d1:15:3e:ba:96:eb:34:eb:ec:55:af:
         45:ae:6c:95:c8:5c:f0:66:81:cf:41:36:79:79:6f:00:37:bb:
         0d:2c:64:7e:bc:eb:51:b8:e0:16:5a:8a:c5:44:8d:78:75:0e:
         90:2f:6f:05:b7:a3:67:51:4e:c8:0e:bb:98:9f:51:a7:6b:ab:
         43:4d:52:ea:45:60:30:c6:c5:42:c1:fa:50:94:65:49:6d:e7:
         b3:18:37:da:8d:e2:45:fe:a0:94:a7:90:dd:01:7c:94:bf:b6:
         04:4b:45:d9:d2:f0:8e:20:73:5b:37:2e:09:75:1c:ae:1b:c0:
         ed:ae:1b:a8:8f:84:85:49:5a:dd:86:91:12:ec:7d:ac:a5:da:
         e6:49:79:33:89:db:2c:e5:e3:79:6e:ff:f7:04:ed:cd:53:6a:
         51:da:3d:6a:94:63:c0:25:3e:1d:0e:d8:69:c8:6b:c3:14:4a:
         20:b7:44:0b:67:28:7e:02:9e:9d:40:ad:44:d5:e3:74:c4:ce:
         d8:6c:21:c0:23:df:85:26:b1:5a:85:20:d3:00:ca:bf:f9:05:
         0e:e1:51:c5:0f:ce:c0:d1:1d:6e:21:6a:23:98:2d:d5:28:37:
         69:e5:76:45:00:83:ca:38:39:e6:53:c3:2c:ee:38:79:47:59:
         1c:8b:3f:eb:98:28:02:95:02:7d:01:7f:08:b0:6b:1b:14:4f:
         72:47:4c:ec:66:8b:70:b7:7d:bf:36:8d:96:42:f7:78:53:0e:
         30:5e:c2:4a:bc:fc:bf:04
-----BEGIN CERTIFICATE-----
MIIFuDCCA6CgAwIBAgIBIjANBgkqhkiG9w0BAQ0FADBsMQswCQYDVQQGEwJDQTEL
MAkGA1UECAwCUWMxDzANBgNVBAcMBlF1ZWJlYzEPMA0GA1UECgwGTXkgT3JnMRow
GAYDVQQLDBFNeSBPcmcgRGVwYXJ0bWVudDESMBAGA1UEAwwJTXkgT3JnIENBMB4X
DTE0MTIyODA0MjYzNFoXDTI0MTIyNzA0MjYzNFowfTELMAkGA1UEBhMCQ0ExCzAJ
BgNVBAgMAlFjMQ8wDQYDVQQHDAZRdWViZWMxDzANBgNVBAoMBk15IE9yZzEaMBgG
A1UECwwRTXkgT3JnIERlcGFydG1lbnQxIzAhBgNVBAMMGmNsaS5wc3FsLnNjb3Jl
Ym9hcmQucGxheWVyMIICIjANBgkqhkiG9w0BAQEFAAOCAg8AMIICCgKCAgEAzNoR
AlEn+T1ItR2Us0y8nMe5Y3dWKisExpNyPB4pz6XSkGXIS478Q/UIZSbyXD3kLVRW
YHv/YIT//tzR7XJZcxF7QueA/zsgsTBjg+oz7V24/cN5jRZnJMfiDmD1O2DA1HHs
Bs+K/oDVGJgtHUAcDce81rIcIxZELuLlaZWIVjHlEUG2l742PIib4NDUbXwZADfF
7UNyCPhrzx4jDskzOA17+vgbP/iS6OISj/+3d2Wr6ufsPMlBLrG2s+2s6MtL6MIG
jk1lULlmLK85IRTXCQVwLzGFz1HUWAou/AkGfvNWt8HDQWDO2Qf3BtvWwBL3P438
F0MGpf7ZQpBEU4luKsrJOUM82N5QwTen19SZytqCWvQMhLOZLPEjeNflYhZhh35g
FHWy+mnuXqRY6PVjwiI+c4Ud/mGsYI3M2HK5dm+fhqCECK43EJo2z7KXr6aqS16K
yRhlHnwsp4Bn3LfY93X0iCXjZwLpQ3hMMMF//wTMVOPSaL6mmBKBC7m3VUJDsNJg
1EepQHmVcCSz+xbeyD1wnGwKQOXbiV7ZdaLFqxR/XQgEoSSFzWj/IqK0k0IF58L7
yyfiZCJoohztSwRSkM/PEDFygSxKxUST0GwmuQlo/R2s2/LOJ/mCD7J5fw3nyvSG
cTjgNeGOfOkhgfoYVZx41APIznkisC1JpD/H2tcCAwEAAaNUMFIwDgYDVR0PAQH/
BAQDAgWgMAwGA1UdEwEB/wQCMAAwEwYDVR0lBAwwCgYIKwYBBQUHAwIwHQYDVR0O
BBYEFPIF+pAkAx9uMOVE24PrjyCKfHJbMA0GCSqGSIb3DQEBDQUAA4ICAQBRpHzU
2xXxhrO01xfKEg8QCJ85Ci8XPiuUyn4P3uU9mqxw5W5ugipLCbcbX6908ScefN4w
qfpLoBOD9Ag3cU0u5GwvfjQyyoLdiM2rsaeLIiJq9Nokwe4t3PF/z3wNbIyBFmvI
rOg8Xh5coAFfv6Qx3jEXl76naqL+5InIv7BVj0orzT34bOCwRmJv2ntZ+86+9QAA
ukkQ8SFk+jA1g3p1OqPBQcgNd3myqglp67ipW7ffDpASe+JjzM/GKjhU3tcaM7hO
AaQFe1r6mDsFAF+1fDySK3LLFoz8DilaWIgw0RU+upbrNOvsVa9FrmyVyFzwZoHP
QTZ5eW8AN7sNLGR+vOtRuOAWWorFRI14dQ6QL28Ft6NnUU7IDruYn1Gna6tDTVLq
RWAwxsVCwfpQlGVJbeezGDfajeJF/qCUp5DdAXyUv7YES0XZ0vCOIHNbNy4JdRyu
G8Dtrhuoj4SFSVrdhpES7H2spdrmSXkzidss5eN5bv/3BO3NU2pR2j1qlGPAJT4d
DthpyGvDFEogt0QLZyh+Ap6dQK1E1eN0xM7YbCHAI9+FJrFahSDTAMq/+QUO4VHF
D87A0R1uIWojmC3VKDdp5XZFAIPKODnmU8Ms7jh5R1kciz/rmCgClQJ9AX8IsGsb
FE9yR0zsZotwt32/No2WQvd4Uw4wXsJKvPy/BA==
-----END CERTIFICATE-----
