Certificate:
    Data:
        Version: 3 (0x2)
        Serial Number: 36 (0x24)
    Signature Algorithm: sha512WithRSAEncryption
        Issuer: C=CA, ST=Qc, L=Quebec, O=My Org, OU=My Org Department, CN=My Org CA
        Validity
            Not Before: Dec 28 04:26:40 2014 GMT
            Not After : Dec 27 04:26:40 2024 GMT
        Subject: C=CA, ST=Qc, L=Quebec, O=My Org, OU=My Org Department, CN=cli.psql.scoreboard.web
        Subject Public Key Info:
            Public Key Algorithm: rsaEncryption
                Public-Key: (4096 bit)
                Modulus:
                    00:c0:d5:3b:4a:3b:00:b5:67:1d:c3:bd:f2:be:85:
                    4d:d9:ff:d0:a4:3b:c1:12:9c:08:a0:e1:c7:60:f8:
                    9f:16:b6:8d:b4:90:15:f9:52:2a:b3:71:0f:99:17:
                    19:6e:b2:bf:dc:b0:1f:bf:f4:99:06:f5:d8:87:91:
                    d5:47:69:72:77:8f:7f:15:ed:30:31:01:e4:25:8d:
                    8b:b1:1f:7b:a8:ff:16:43:c6:a6:b6:2f:f8:a6:94:
                    2d:c2:9c:a0:56:69:fa:1b:6c:d3:e7:1b:19:46:63:
                    48:df:fb:47:e9:1a:34:f5:69:e4:f3:eb:6c:2f:ac:
                    cd:55:df:f0:09:15:b0:91:90:9d:d1:a2:99:ce:83:
                    ed:94:3a:d0:4b:16:03:23:cd:ff:cb:3f:83:84:b4:
                    a1:4b:0c:06:ea:b5:30:a2:32:30:28:9b:1e:cb:ff:
                    2c:d6:6a:00:7c:5b:a1:6c:65:e4:92:9a:b3:eb:54:
                    4e:31:27:60:64:ad:dd:c5:c9:cd:e3:67:06:ca:24:
                    aa:52:5e:1e:cb:02:e1:89:d3:ef:d2:c4:2f:ef:0e:
                    bb:47:77:a3:03:6c:e4:b7:48:d1:f4:cd:4d:3d:49:
                    f9:7d:84:7a:67:30:6d:a5:fa:42:46:4b:e3:8e:d9:
                    96:68:0e:2e:cc:d8:7d:92:a4:18:7f:08:29:c3:8e:
                    94:35:eb:59:03:b9:22:07:7a:0d:c1:14:9b:0e:d2:
                    64:e5:93:8c:63:fc:64:c1:ef:41:35:ca:26:31:68:
                    8f:6b:71:05:7e:8f:ca:48:dc:ed:59:32:1c:49:24:
                    3b:d8:11:b9:5e:ff:e4:a2:24:1f:55:78:45:19:8f:
                    ba:6c:4c:26:8a:04:3b:fb:c2:38:23:fa:f8:14:c5:
                    11:ce:12:71:68:0f:27:a3:00:bb:a5:b6:e9:4d:81:
                    17:4e:a7:11:ff:20:01:de:39:68:03:59:65:98:61:
                    4b:e7:d5:f6:09:d4:99:b7:77:19:ab:a3:2a:fb:5b:
                    af:ed:fb:75:cb:56:67:36:2a:c4:de:c8:1d:94:ec:
                    d3:3d:ba:ad:c1:d0:b1:51:de:eb:d2:ab:4f:75:c0:
                    a5:64:54:83:a5:eb:fc:9d:5b:a2:e1:0e:5c:4d:70:
                    26:1a:9d:4a:5e:93:9a:8c:58:da:89:62:39:ce:1e:
                    ea:e0:5a:a2:ee:aa:b5:06:29:04:1a:3f:65:20:09:
                    31:2d:f0:3f:25:ae:2d:d2:c0:f7:df:8e:9d:32:88:
                    38:49:43:6b:d1:93:c2:7c:5f:45:31:ea:41:8a:f8:
                    e4:e3:30:a7:75:1d:94:17:c2:a7:8c:cb:dc:11:64:
                    1d:3a:30:29:fc:33:8f:17:5f:d2:d6:05:fb:29:04:
                    8f:47:0d
                Exponent: 65537 (0x10001)
        X509v3 extensions:
            X509v3 Key Usage: critical
                Digital Signature, Key Encipherment
            X509v3 Basic Constraints: critical
                CA:FALSE
            X509v3 Extended Key Usage: 
                TLS Web Client Authentication
            X509v3 Subject Key Identifier: 
                0E:AA:7E:1C:76:D3:F6:A4:88:DB:E0:F8:52:E1:17:C9:49:5E:74:FD
    Signature Algorithm: sha512WithRSAEncryption
         02:62:c2:37:12:48:3d:2d:1b:9a:81:f3:e2:ce:c1:b5:f2:e6:
         ec:07:59:25:60:a2:06:45:7c:6c:b4:8f:1b:4a:f6:47:57:8d:
         85:37:40:1c:e4:b3:01:ac:4b:fb:3e:e2:00:11:53:16:46:19:
         9d:3f:65:0b:78:07:55:d2:f3:3c:43:cb:4b:af:3b:85:33:45:
         28:6e:9e:b1:73:a3:8e:05:29:e3:4e:2a:89:e3:ff:5a:f0:22:
         fc:cf:55:59:c5:84:bd:f4:ac:5e:24:c4:b3:14:5f:52:ab:b4:
         c1:8d:5c:c3:91:b2:9c:e0:9d:d7:91:8d:47:30:d0:71:43:59:
         4f:14:cd:6b:40:79:e4:13:44:67:97:7c:a0:50:29:65:d7:fb:
         42:45:e7:98:c5:fa:ed:3f:ea:1a:84:35:ef:29:ff:cf:bc:c5:
         25:ce:f9:fb:b8:f2:41:ff:b6:30:a9:73:e9:64:27:f4:4a:ef:
         b5:65:15:29:19:58:40:db:53:62:fc:ff:85:24:96:b3:1d:b6:
         b2:19:27:36:e8:a4:74:ce:16:90:7c:96:10:30:45:52:43:46:
         75:b4:ca:54:53:27:13:8a:54:9f:51:ad:a0:b6:6d:e1:f0:d7:
         97:3c:a9:24:df:c6:69:fb:27:b5:91:37:3d:f1:44:5c:8d:c0:
         e1:97:30:eb:a0:bb:ca:d4:9a:a4:92:13:af:dd:09:df:0f:1b:
         dc:b5:2d:d1:15:3f:98:62:a6:00:3a:4a:65:5c:01:6a:77:ee:
         15:50:70:f4:5e:01:e1:ac:47:b8:09:8e:06:15:a7:97:63:78:
         d5:d2:ce:4a:42:a9:25:63:ff:c7:30:60:d8:3c:7b:6c:7e:a4:
         c3:7b:d4:a2:15:ec:1c:1c:f2:9b:bf:bf:9c:d8:c6:f9:3f:17:
         16:13:ad:62:9e:b6:92:35:72:9c:5a:20:c6:b5:2b:ea:bd:cc:
         90:08:99:81:68:2d:8c:5e:74:d9:b8:bb:c0:8e:46:7f:3b:6a:
         ab:b1:4d:ee:18:85:85:b8:8b:a5:ad:88:9e:8a:6d:a5:e6:c7:
         1a:e9:42:8c:17:f7:cc:e2:51:91:43:3c:dd:62:13:c0:cc:54:
         1e:70:03:80:ea:63:0b:c8:e7:9d:29:ff:a1:ef:ef:63:30:39:
         18:5d:ce:be:05:4a:e1:4b:7a:ed:2c:71:a6:22:bf:e6:ef:a2:
         d8:f5:2a:40:98:72:e3:92:25:e5:37:e3:ca:b4:eb:d1:7a:26:
         46:4d:8e:b3:d7:1c:b5:51:99:a8:11:d4:85:c9:96:e1:0c:85:
         32:4b:d8:da:0b:c4:9e:ec:7c:3c:2d:d8:f5:5c:b8:3a:09:2b:
         d2:bf:14:4f:a3:5f:a4:0d
-----BEGIN CERTIFICATE-----
MIIFtTCCA52gAwIBAgIBJDANBgkqhkiG9w0BAQ0FADBsMQswCQYDVQQGEwJDQTEL
MAkGA1UECAwCUWMxDzANBgNVBAcMBlF1ZWJlYzEPMA0GA1UECgwGTXkgT3JnMRow
GAYDVQQLDBFNeSBPcmcgRGVwYXJ0bWVudDESMBAGA1UEAwwJTXkgT3JnIENBMB4X
DTE0MTIyODA0MjY0MFoXDTI0MTIyNzA0MjY0MFowejELMAkGA1UEBhMCQ0ExCzAJ
BgNVBAgMAlFjMQ8wDQYDVQQHDAZRdWViZWMxDzANBgNVBAoMBk15IE9yZzEaMBgG
A1UECwwRTXkgT3JnIERlcGFydG1lbnQxIDAeBgNVBAMMF2NsaS5wc3FsLnNjb3Jl
Ym9hcmQud2ViMIICIjANBgkqhkiG9w0BAQEFAAOCAg8AMIICCgKCAgEAwNU7SjsA
tWcdw73yvoVN2f/QpDvBEpwIoOHHYPifFraNtJAV+VIqs3EPmRcZbrK/3LAfv/SZ
BvXYh5HVR2lyd49/Fe0wMQHkJY2LsR97qP8WQ8amti/4ppQtwpygVmn6G2zT5xsZ
RmNI3/tH6Ro09Wnk8+tsL6zNVd/wCRWwkZCd0aKZzoPtlDrQSxYDI83/yz+DhLSh
SwwG6rUwojIwKJsey/8s1moAfFuhbGXkkpqz61ROMSdgZK3dxcnN42cGyiSqUl4e
ywLhidPv0sQv7w67R3ejA2zkt0jR9M1NPUn5fYR6ZzBtpfpCRkvjjtmWaA4uzNh9
kqQYfwgpw46UNetZA7kiB3oNwRSbDtJk5ZOMY/xkwe9BNcomMWiPa3EFfo/KSNzt
WTIcSSQ72BG5Xv/koiQfVXhFGY+6bEwmigQ7+8I4I/r4FMURzhJxaA8nowC7pbbp
TYEXTqcR/yAB3jloA1llmGFL59X2CdSZt3cZq6Mq+1uv7ft1y1ZnNirE3sgdlOzT
PbqtwdCxUd7r0qtPdcClZFSDpev8nVui4Q5cTXAmGp1KXpOajFjaiWI5zh7q4Fqi
7qq1BikEGj9lIAkxLfA/Ja4t0sD3346dMog4SUNr0ZPCfF9FMepBivjk4zCndR2U
F8KnjMvcEWQdOjAp/DOPF1/S1gX7KQSPRw0CAwEAAaNUMFIwDgYDVR0PAQH/BAQD
AgWgMAwGA1UdEwEB/wQCMAAwEwYDVR0lBAwwCgYIKwYBBQUHAwIwHQYDVR0OBBYE
FA6qfhx20/akiNvg+FLhF8lJXnT9MA0GCSqGSIb3DQEBDQUAA4ICAQACYsI3Ekg9
LRuagfPizsG18ubsB1klYKIGRXxstI8bSvZHV42FN0Ac5LMBrEv7PuIAEVMWRhmd
P2ULeAdV0vM8Q8tLrzuFM0Uobp6xc6OOBSnjTiqJ4/9a8CL8z1VZxYS99KxeJMSz
FF9Sq7TBjVzDkbKc4J3XkY1HMNBxQ1lPFM1rQHnkE0Rnl3ygUCll1/tCReeYxfrt
P+oahDXvKf/PvMUlzvn7uPJB/7YwqXPpZCf0Su+1ZRUpGVhA21Ni/P+FJJazHbay
GSc26KR0zhaQfJYQMEVSQ0Z1tMpUUycTilSfUa2gtm3h8NeXPKkk38Zp+ye1kTc9
8URcjcDhlzDroLvK1JqkkhOv3QnfDxvctS3RFT+YYqYAOkplXAFqd+4VUHD0XgHh
rEe4CY4GFaeXY3jV0s5KQqklY//HMGDYPHtsfqTDe9SiFewcHPKbv7+c2Mb5PxcW
E61inraSNXKcWiDGtSvqvcyQCJmBaC2MXnTZuLvAjkZ/O2qrsU3uGIWFuIulrYie
im2l5sca6UKMF/fM4lGRQzzdYhPAzFQecAOA6mMLyOedKf+h7+9jMDkYXc6+BUrh
S3rtLHGmIr/m76LY9SpAmHLjkiXlN+PKtOvReiZGTY6z1xy1UZmoEdSFyZbhDIUy
S9jaC8Se7Hw8Ldj1XLg6CSvSvxRPo1+kDQ==
-----END CERTIFICATE-----
