Certificate:
    Data:
        Version: 3 (0x2)
        Serial Number: 36 (0x24)
    Signature Algorithm: sha512WithRSAEncryption
        Issuer: C=CA, ST=Qc, L=Quebec, O=My Org, OU=My Org Department, CN=My Org CA
        Validity
            Not Before: Dec 28 05:09:33 2014 GMT
            Not After : Dec 27 05:09:33 2024 GMT
        Subject: C=CA, ST=Qc, L=Quebec, O=My Org, OU=My Org Department, CN=web
        Subject Public Key Info:
            Public Key Algorithm: rsaEncryption
                Public-Key: (4096 bit)
                Modulus:
                    00:b4:e9:4b:53:e0:cd:1a:fd:c3:ea:32:cd:28:1c:
                    77:38:78:79:17:b9:05:c2:1c:8c:14:17:de:89:75:
                    47:01:47:7b:0d:c4:02:5e:26:65:cb:f3:7c:d6:58:
                    98:bc:62:b8:8f:40:61:85:86:d1:74:94:50:42:c5:
                    8d:9c:b2:b1:8c:a2:c4:dd:2d:88:3b:26:15:90:39:
                    a0:cf:b1:cf:e0:01:f3:02:44:f8:77:0b:de:f1:a7:
                    c8:70:2e:6d:8a:32:a6:9a:e0:44:2e:9f:f5:a1:3c:
                    cf:29:d6:c6:b9:e2:7a:95:b6:3f:c1:e2:71:71:dc:
                    7e:61:e1:9a:08:41:82:9f:61:cf:93:87:22:8b:08:
                    2b:91:0e:8e:8b:bf:f5:40:e7:d8:0c:1f:d7:73:64:
                    8f:ac:0d:c9:94:b5:61:c9:77:93:54:d8:fa:b5:27:
                    17:3c:ed:2c:a7:f3:a4:ed:b4:6b:45:74:34:16:f0:
                    96:56:4a:ee:db:c0:99:7f:ca:1e:c8:57:23:ab:7e:
                    be:3b:53:de:da:19:8c:a6:a3:f0:95:d4:0e:94:e4:
                    86:7b:7b:67:57:7f:76:b8:5e:3c:83:0e:3c:57:4d:
                    a9:b3:a5:14:51:83:3a:8e:b7:db:88:e9:7a:b4:56:
                    37:fc:dc:d4:a2:b8:f9:76:4c:a8:ec:ad:e1:b5:4a:
                    b8:43:48:17:97:ba:ab:d3:d8:d4:0d:25:96:91:d6:
                    46:be:52:6c:ad:e6:2c:e8:fb:dc:f2:d8:7a:ee:bf:
                    a7:b5:8a:7c:e1:f9:61:b7:24:67:07:02:e9:03:b6:
                    1c:ff:56:ae:fc:0e:b6:53:b0:3c:73:e8:cd:be:9a:
                    b2:d2:ba:b5:fe:00:4b:5f:4e:89:0e:91:2a:e9:1b:
                    9f:56:a2:07:8b:3c:65:92:dc:3e:fa:3c:31:be:ab:
                    04:bc:98:65:61:db:73:0d:0b:46:3a:d0:8f:23:3f:
                    6b:09:85:19:d8:eb:fa:33:0c:a5:b3:d9:3a:ec:0d:
                    65:05:67:db:90:cc:71:79:be:12:5e:54:cb:da:84:
                    2e:12:e9:d0:d3:64:48:29:aa:ee:6d:0f:a4:35:48:
                    a1:bc:8c:ed:7a:00:01:41:ca:7d:d8:6d:cc:86:d5:
                    02:03:8c:c6:68:2a:d2:85:2a:e9:df:f3:66:0e:1d:
                    c2:86:e3:76:9a:b8:8b:d5:0d:9a:6e:5b:48:60:b4:
                    99:5a:ff:1a:2c:de:3c:c5:21:a6:30:b6:8c:95:74:
                    bb:22:aa:8f:dd:dc:e9:8e:60:3b:1a:44:fd:c3:a0:
                    a5:29:32:d5:04:e2:f2:b6:53:2e:73:3f:d3:f5:89:
                    ae:40:ac:12:db:a3:d0:d6:d3:b0:6e:b3:4b:29:b0:
                    c5:49:53
                Exponent: 65537 (0x10001)
        X509v3 extensions:
            X509v3 Key Usage: critical
                Digital Signature, Key Encipherment
            X509v3 Basic Constraints: critical
                CA:FALSE
            X509v3 Extended Key Usage: 
                TLS Web Client Authentication
            X509v3 Subject Key Identifier: 
                8D:5A:FF:6A:D1:66:A7:4F:9C:E4:B5:8F:5A:CE:F5:F9:40:66:29:60
    Signature Algorithm: sha512WithRSAEncryption
         80:cb:8c:bc:d1:bc:97:20:9a:e6:b9:41:fd:8f:a1:64:16:72:
         0b:6a:d8:1e:86:47:45:26:38:21:9d:b7:7e:ab:68:e4:a1:f9:
         cf:8e:58:77:c5:83:6e:e7:44:70:2d:f7:4f:92:01:76:4f:d0:
         e6:59:d7:4c:02:16:f3:1f:56:51:c4:6d:97:73:2a:a7:34:1e:
         d6:7f:1c:0e:23:0a:a7:cd:35:62:4b:b1:b0:01:5f:8d:ce:00:
         92:41:43:01:5d:ad:c9:ac:83:53:03:98:4f:ce:68:7c:0c:7c:
         fc:18:41:7e:a7:ba:70:8f:d6:62:bd:a4:d5:c0:53:f8:4e:af:
         37:f6:cd:05:7d:4e:4c:4a:3d:b2:a7:96:8c:3e:a1:39:62:16:
         64:2a:f6:89:35:7a:f2:8f:21:41:38:7f:e8:02:5b:50:e5:6d:
         20:78:d7:6f:ed:95:d9:fa:79:67:62:45:1a:de:0c:ae:21:95:
         68:39:5f:11:d9:a1:0c:8c:bb:a4:3e:8b:52:33:6e:17:32:8b:
         3c:a5:82:ce:dc:2a:32:26:01:2b:d3:93:91:ae:a0:69:88:16:
         24:f7:25:fa:58:30:58:30:73:29:8f:60:bf:20:d2:b8:d1:6c:
         06:2f:14:b1:55:87:d5:0c:4d:6e:8f:13:22:32:87:53:44:f8:
         bb:6a:84:cd:2a:c8:ae:cc:70:4b:fb:f8:0b:fb:5b:a3:21:f5:
         e8:dc:5f:50:47:b3:a8:51:86:9d:0b:e7:55:89:3c:79:e3:f0:
         0d:86:2e:35:6a:b0:c5:f3:8d:f2:07:23:be:1b:cd:6c:7f:3b:
         04:ad:6b:06:24:5c:6f:b5:47:77:5e:7d:dd:8f:79:26:f2:2e:
         36:0a:09:8b:fb:7b:f4:85:2d:a0:58:9e:f6:93:f8:fd:36:8b:
         73:9f:e5:41:14:3b:fd:29:12:33:a3:6e:a2:56:07:63:ae:9b:
         29:42:27:9d:38:3c:d3:f9:4e:59:f8:c3:70:ad:2f:30:4d:60:
         50:14:b3:31:f5:00:e0:b8:e8:51:59:f4:8e:f7:45:e6:6d:a5:
         25:37:3f:5a:42:92:63:64:c1:25:80:ad:af:2d:0f:f9:8c:6d:
         be:58:1a:99:52:14:8d:b7:8d:bb:72:c9:cb:a6:27:cf:60:c8:
         46:4d:49:2f:0d:4e:fa:6a:19:20:65:ea:7b:6d:29:cd:52:2b:
         29:47:58:40:16:e8:39:e6:08:a9:d0:a2:a1:e2:cc:5f:15:90:
         4a:da:ac:a0:a1:b7:85:b5:de:16:84:89:76:6b:8f:21:e9:78:
         c1:63:8d:fa:10:8c:a6:61:9f:b0:24:48:d9:3a:27:a4:01:b3:
         02:5a:e0:8f:f9:de:58:35
-----BEGIN CERTIFICATE-----
MIIFoTCCA4mgAwIBAgIBJDANBgkqhkiG9w0BAQ0FADBsMQswCQYDVQQGEwJDQTEL
MAkGA1UECAwCUWMxDzANBgNVBAcMBlF1ZWJlYzEPMA0GA1UECgwGTXkgT3JnMRow
GAYDVQQLDBFNeSBPcmcgRGVwYXJ0bWVudDESMBAGA1UEAwwJTXkgT3JnIENBMB4X
DTE0MTIyODA1MDkzM1oXDTI0MTIyNzA1MDkzM1owZjELMAkGA1UEBhMCQ0ExCzAJ
BgNVBAgMAlFjMQ8wDQYDVQQHDAZRdWViZWMxDzANBgNVBAoMBk15IE9yZzEaMBgG
A1UECwwRTXkgT3JnIERlcGFydG1lbnQxDDAKBgNVBAMMA3dlYjCCAiIwDQYJKoZI
hvcNAQEBBQADggIPADCCAgoCggIBALTpS1PgzRr9w+oyzSgcdzh4eRe5BcIcjBQX
3ol1RwFHew3EAl4mZcvzfNZYmLxiuI9AYYWG0XSUUELFjZyysYyixN0tiDsmFZA5
oM+xz+AB8wJE+HcL3vGnyHAubYoypprgRC6f9aE8zynWxrniepW2P8HicXHcfmHh
mghBgp9hz5OHIosIK5EOjou/9UDn2Awf13Nkj6wNyZS1Ycl3k1TY+rUnFzztLKfz
pO20a0V0NBbwllZK7tvAmX/KHshXI6t+vjtT3toZjKaj8JXUDpTkhnt7Z1d/drhe
PIMOPFdNqbOlFFGDOo6324jperRWN/zc1KK4+XZMqOyt4bVKuENIF5e6q9PY1A0l
lpHWRr5SbK3mLOj73PLYeu6/p7WKfOH5YbckZwcC6QO2HP9WrvwOtlOwPHPozb6a
stK6tf4AS19OiQ6RKukbn1aiB4s8ZZLcPvo8Mb6rBLyYZWHbcw0LRjrQjyM/awmF
Gdjr+jMMpbPZOuwNZQVn25DMcXm+El5Uy9qELhLp0NNkSCmq7m0PpDVIobyM7XoA
AUHKfdhtzIbVAgOMxmgq0oUq6d/zZg4dwobjdpq4i9UNmm5bSGC0mVr/GizePMUh
pjC2jJV0uyKqj93c6Y5gOxpE/cOgpSky1QTi8rZTLnM/0/WJrkCsEtuj0NbTsG6z
SymwxUlTAgMBAAGjVDBSMA4GA1UdDwEB/wQEAwIFoDAMBgNVHRMBAf8EAjAAMBMG
A1UdJQQMMAoGCCsGAQUFBwMCMB0GA1UdDgQWBBSNWv9q0WanT5zktY9azvX5QGYp
YDANBgkqhkiG9w0BAQ0FAAOCAgEAgMuMvNG8lyCa5rlB/Y+hZBZyC2rYHoZHRSY4
IZ23fqto5KH5z45Yd8WDbudEcC33T5IBdk/Q5lnXTAIW8x9WUcRtl3MqpzQe1n8c
DiMKp801YkuxsAFfjc4AkkFDAV2tyayDUwOYT85ofAx8/BhBfqe6cI/WYr2k1cBT
+E6vN/bNBX1OTEo9sqeWjD6hOWIWZCr2iTV68o8hQTh/6AJbUOVtIHjXb+2V2fp5
Z2JFGt4MriGVaDlfEdmhDIy7pD6LUjNuFzKLPKWCztwqMiYBK9OTka6gaYgWJPcl
+lgwWDBzKY9gvyDSuNFsBi8UsVWH1QxNbo8TIjKHU0T4u2qEzSrIrsxwS/v4C/tb
oyH16NxfUEezqFGGnQvnVYk8eePwDYYuNWqwxfON8gcjvhvNbH87BK1rBiRcb7VH
d1593Y95JvIuNgoJi/t79IUtoFie9pP4/TaLc5/lQRQ7/SkSM6NuolYHY66bKUIn
nTg80/lOWfjDcK0vME1gUBSzMfUA4LjoUVn0jvdF5m2lJTc/WkKSY2TBJYCtry0P
+YxtvlgamVIUjbeNu3LJy6Ynz2DIRk1JLw1O+moZIGXqe20pzVIrKUdYQBboOeYI
qdCioeLMXxWQStqsoKG3hbXeFoSJdmuPIel4wWON+hCMpmGfsCRI2TonpAGzAlrg
j/neWDU=
-----END CERTIFICATE-----
