Certificate:
    Data:
        Version: 3 (0x2)
        Serial Number: 4 (0x4)
    Signature Algorithm: sha512WithRSAEncryption
        Issuer: DC=hf, O=Hackfest 2014, OU=Hackfest scoreboard root CA, CN=Hackfest scoreboard root CA
        Validity
            Not Before: Oct  4 20:06:06 2014 GMT
            Not After : Oct  3 20:06:06 2016 GMT
        Subject: DC=hf, O=Hackfest 2014, OU=Hackfest scoreboard client CA, CN=scoreboard
        Subject Public Key Info:
            Public Key Algorithm: rsaEncryption
                Public-Key: (4096 bit)
                Modulus:
                    00:c8:07:6a:09:a1:37:ba:52:a4:cc:d5:cf:db:13:
                    57:05:ac:5e:af:bf:3a:58:4a:8d:67:5f:49:2a:76:
                    f4:3e:ae:47:82:13:2d:5a:95:e1:0d:25:70:c0:eb:
                    e3:29:6e:ea:2e:b8:25:37:1c:b7:16:b7:41:86:7f:
                    b8:c6:d4:49:4a:b5:4d:ff:9f:a9:2f:1e:c1:c6:c4:
                    3d:69:4c:04:00:49:8c:9c:91:cf:a7:4e:0b:58:22:
                    07:e3:bc:03:88:6b:e9:95:12:6a:20:f1:9e:af:cb:
                    d3:e8:87:18:14:4e:a5:23:43:74:e4:fe:67:83:a6:
                    cd:4c:f2:b5:ea:80:a3:aa:69:1b:25:21:10:20:51:
                    9c:64:63:7d:10:9e:aa:4b:da:89:64:bc:bd:97:9d:
                    94:7a:1f:42:68:3c:1b:ac:8a:97:55:05:8a:16:03:
                    99:4a:84:d2:df:ae:dd:44:81:c8:81:c8:0e:4d:27:
                    35:af:7d:9a:e6:f4:9c:69:83:bf:1a:0c:e9:90:35:
                    60:8c:60:20:6d:e8:6b:fd:0b:12:6e:2e:5f:ee:a6:
                    f6:71:29:9e:25:fa:ae:2f:4d:27:a4:cb:80:b1:57:
                    66:5e:b7:9a:47:c9:f4:63:4e:0a:54:b3:be:8c:12:
                    31:09:80:8c:71:90:7d:82:11:0d:d6:76:17:b0:aa:
                    82:fb:3f:5b:18:41:eb:e3:a3:a9:e7:4f:df:59:08:
                    ad:fd:c4:b4:0a:34:f7:0d:9f:e7:ec:a8:38:05:46:
                    8a:06:c6:1d:58:59:9d:b0:de:ae:a6:82:03:83:c9:
                    c8:1c:f2:81:0c:a0:f2:a8:69:5a:d8:a7:a9:0a:28:
                    82:2a:7a:d9:32:1e:f0:a5:b0:fc:ad:50:38:67:5e:
                    0a:5b:4f:87:38:5c:ed:66:e9:df:ec:a9:6d:e0:ec:
                    be:f8:24:51:e8:a7:db:30:d1:48:ce:a0:88:76:c5:
                    e9:1b:f0:bf:f6:39:91:3d:9f:a3:af:63:b1:4b:f1:
                    c4:01:b3:26:fe:4d:be:33:bc:02:88:36:30:46:5a:
                    38:ec:b0:99:b4:53:5e:e7:c5:9c:63:67:dd:fb:8d:
                    85:94:53:88:f8:5d:70:59:09:50:a0:cc:d3:c0:bc:
                    4e:cc:69:13:61:12:1f:b4:06:48:27:c6:8f:6e:c2:
                    e8:f1:cc:01:a0:fe:7b:14:b2:66:82:53:c1:63:54:
                    91:2f:44:23:47:27:80:1b:7d:ea:8d:dc:24:84:75:
                    c6:8a:d1:63:f6:d9:9a:47:30:b3:94:28:4f:40:21:
                    40:f7:c7:c6:b5:38:af:a9:d4:7a:95:3e:ef:88:9b:
                    33:00:c5:d9:a6:7a:89:71:48:b6:02:50:72:0d:eb:
                    d6:8b:59
                Exponent: 65537 (0x10001)
        X509v3 extensions:
            X509v3 Key Usage: critical
                Digital Signature, Key Encipherment
            X509v3 Basic Constraints: 
                CA:FALSE
            X509v3 Extended Key Usage: 
                TLS Web Server Authentication, TLS Web Client Authentication
            X509v3 Subject Key Identifier: 
                70:27:77:EF:6B:9C:FD:1D:BC:66:CA:9B:55:F6:BE:35:03:46:AF:34
            X509v3 Authority Key Identifier: 
                keyid:36:00:4E:00:7F:AA:0E:17:89:5C:17:D7:50:86:8E:A4:01:EE:06:DB

            X509v3 Subject Alternative Name: 
                DNS:scoreboard.hf
    Signature Algorithm: sha512WithRSAEncryption
         8b:ab:fd:61:d1:93:42:99:03:34:31:fc:ef:2d:23:25:8a:5b:
         34:27:c2:f7:2a:87:5c:0a:72:c7:f5:9e:46:5c:e1:e2:9c:0c:
         d6:04:5e:61:71:3f:55:ca:d4:d2:fa:93:82:0e:95:10:b9:a5:
         f2:64:0a:ad:30:04:67:3b:54:e7:0c:ef:53:ec:a6:af:a9:7d:
         57:ce:ab:d8:47:ec:57:e6:09:ef:64:6b:26:50:8e:cb:58:d2:
         c2:e0:15:b3:ea:ca:6e:26:a9:76:83:fc:c7:f5:30:96:96:d8:
         75:b4:7b:32:48:41:99:8a:b6:5f:cc:b0:71:2f:0f:14:bf:86:
         61:95:42:93:86:04:cb:72:dd:a1:8c:f3:af:cf:1c:90:0b:53:
         4e:2f:a3:40:f2:fa:fe:b2:47:98:f4:13:85:6f:81:e7:f5:35:
         25:7c:ec:ab:4c:4e:92:d9:aa:7c:21:15:8f:43:ba:d3:cf:8d:
         69:f5:b8:63:07:5f:1e:d1:18:9a:86:15:25:1e:ec:62:e4:d6:
         ea:29:92:f4:6d:4d:60:0e:7d:91:d5:fe:f8:42:f3:5b:53:b6:
         ee:17:5e:c0:8f:71:83:5f:da:03:52:48:27:c7:2e:4f:37:0f:
         b0:5d:37:81:72:5f:ad:23:b5:3a:0d:80:84:8e:c1:07:99:2c:
         de:63:39:0d:91:f5:c9:32:5e:30:07:cb:3a:45:ed:24:e3:98:
         0a:88:0c:81:1b:c1:d8:0e:ed:80:f5:95:e5:f2:3b:ca:5a:5f:
         de:03:ca:bd:89:61:bb:93:60:26:54:53:2d:d5:f7:74:52:2f:
         c6:8f:c1:d3:f3:59:6f:a6:53:ae:16:9f:86:eb:ca:e6:fd:cc:
         c7:1a:d1:62:72:5d:7b:d1:d3:a6:82:f9:08:f6:2e:5b:7a:80:
         44:5f:8d:21:de:35:8b:08:69:ed:e4:8d:16:8d:a0:9b:42:11:
         42:62:d8:29:0b:98:d8:ab:f5:a3:90:6d:fa:0d:41:57:a0:ee:
         ed:c5:4c:41:04:4d:5d:8b:74:ab:a1:eb:39:ec:7a:da:5e:7b:
         62:25:a6:89:e3:03:69:ae:87:e9:8e:06:23:96:be:e1:55:74:
         ef:b6:b3:84:a9:07:99:bb:2c:73:ee:4c:86:3e:c8:48:11:02:
         62:8d:a4:47:29:72:41:ee:bb:c7:c5:0d:d6:7e:e1:d7:79:92:
         af:c7:05:3e:6d:2a:35:46:56:d1:5c:c8:94:ac:d6:90:9a:6e:
         78:41:00:fc:a2:d7:2f:5b:c6:e0:df:27:e5:9c:c9:ab:cf:81:
         30:d6:38:53:e6:d4:a7:45:4a:c9:3f:db:f3:50:74:ed:f3:08:
         5f:a9:1d:5b:61:8c:0d:6b
-----BEGIN CERTIFICATE-----
MIIF9DCCA9ygAwIBAgIBBDANBgkqhkiG9w0BAQ0FADB4MRIwEAYKCZImiZPyLGQB
GRYCaGYxFjAUBgNVBAoMDUhhY2tmZXN0IDIwMTQxJDAiBgNVBAsMG0hhY2tmZXN0
IHNjb3JlYm9hcmQgcm9vdCBDQTEkMCIGA1UEAwwbSGFja2Zlc3Qgc2NvcmVib2Fy
ZCByb290IENBMB4XDTE0MTAwNDIwMDYwNloXDTE2MTAwMzIwMDYwNlowaTESMBAG
CgmSJomT8ixkARkWAmhmMRYwFAYDVQQKDA1IYWNrZmVzdCAyMDE0MSYwJAYDVQQL
DB1IYWNrZmVzdCBzY29yZWJvYXJkIGNsaWVudCBDQTETMBEGA1UEAwwKc2NvcmVi
b2FyZDCCAiIwDQYJKoZIhvcNAQEBBQADggIPADCCAgoCggIBAMgHagmhN7pSpMzV
z9sTVwWsXq+/OlhKjWdfSSp29D6uR4ITLVqV4Q0lcMDr4ylu6i64JTcctxa3QYZ/
uMbUSUq1Tf+fqS8ewcbEPWlMBABJjJyRz6dOC1giB+O8A4hr6ZUSaiDxnq/L0+iH
GBROpSNDdOT+Z4OmzUzyteqAo6ppGyUhECBRnGRjfRCeqkvaiWS8vZedlHofQmg8
G6yKl1UFihYDmUqE0t+u3USByIHIDk0nNa99mub0nGmDvxoM6ZA1YIxgIG3oa/0L
Em4uX+6m9nEpniX6ri9NJ6TLgLFXZl63mkfJ9GNOClSzvowSMQmAjHGQfYIRDdZ2
F7Cqgvs/WxhB6+OjqedP31kIrf3EtAo09w2f5+yoOAVGigbGHVhZnbDerqaCA4PJ
yBzygQyg8qhpWtinqQoogip62TIe8KWw/K1QOGdeCltPhzhc7Wbp3+ypbeDsvvgk
Uein2zDRSM6giHbF6Rvwv/Y5kT2fo69jsUvxxAGzJv5NvjO8Aog2MEZaOOywmbRT
XufFnGNn3fuNhZRTiPhdcFkJUKDM08C8TsxpE2ESH7QGSCfGj27C6PHMAaD+exSy
ZoJTwWNUkS9EI0cngBt96o3cJIR1xorRY/bZmkcws5QoT0AhQPfHxrU4r6nUepU+
74ibMwDF2aZ6iXFItgJQcg3r1otZAgMBAAGjgZcwgZQwDgYDVR0PAQH/BAQDAgWg
MAkGA1UdEwQCMAAwHQYDVR0lBBYwFAYIKwYBBQUHAwEGCCsGAQUFBwMCMB0GA1Ud
DgQWBBRwJ3fva5z9HbxmyptV9r41A0avNDAfBgNVHSMEGDAWgBQ2AE4Af6oOF4lc
F9dQho6kAe4G2zAYBgNVHREEETAPgg1zY29yZWJvYXJkLmhmMA0GCSqGSIb3DQEB
DQUAA4ICAQCLq/1h0ZNCmQM0MfzvLSMlils0J8L3KodcCnLH9Z5GXOHinAzWBF5h
cT9VytTS+pOCDpUQuaXyZAqtMARnO1TnDO9T7KavqX1XzqvYR+xX5gnvZGsmUI7L
WNLC4BWz6spuJql2g/zH9TCWlth1tHsySEGZirZfzLBxLw8Uv4ZhlUKThgTLct2h
jPOvzxyQC1NOL6NA8vr+skeY9BOFb4Hn9TUlfOyrTE6S2ap8IRWPQ7rTz41p9bhj
B18e0RiahhUlHuxi5NbqKZL0bU1gDn2R1f74QvNbU7buF17Aj3GDX9oDUkgnxy5P
Nw+wXTeBcl+tI7U6DYCEjsEHmSzeYzkNkfXJMl4wB8s6Re0k45gKiAyBG8HYDu2A
9ZXl8jvKWl/eA8q9iWG7k2AmVFMt1fd0Ui/Gj8HT81lvplOuFp+G68rm/czHGtFi
cl170dOmgvkI9i5beoBEX40h3jWLCGnt5I0WjaCbQhFCYtgpC5jYq/WjkG36DUFX
oO7txUxBBE1di3Sroes57HraXntiJaaJ4wNprofpjgYjlr7hVXTvtrOEqQeZuyxz
7kyGPshIEQJijaRHKXJB7rvHxQ3WfuHXeZKvxwU+bSo1RlbRXMiUrNaQmm54QQD8
otcvW8bg3yflnMmrz4Ew1jhT5tSnRUrJP9vzUHTt8whfqR1bYYwNaw==
-----END CERTIFICATE-----
