Certificate:
    Data:
        Version: 3 (0x2)
        Serial Number: 34 (0x22)
    Signature Algorithm: sha512WithRSAEncryption
        Issuer: C=CA, ST=Qc, L=Quebec, O=My Org, OU=My Org Department, CN=My Org CA
        Validity
            Not Before: Dec 29 04:42:06 2014 GMT
            Not After : Dec 28 04:42:06 2024 GMT
        Subject: C=CA, ST=Qc, L=Quebec, O=My Org, OU=My Org Department, CN=player
        Subject Public Key Info:
            Public Key Algorithm: rsaEncryption
                Public-Key: (4096 bit)
                Modulus:
                    00:c3:67:73:ae:20:e9:ed:8e:bd:41:b6:29:8f:00:
                    18:1b:a1:20:97:d0:c3:cb:34:50:69:78:a5:1e:d0:
                    e3:c1:32:d7:75:31:6b:e9:56:15:f4:89:50:0b:56:
                    33:e7:62:d1:5b:6f:56:14:f3:86:9b:d2:cf:38:51:
                    18:e4:42:90:b0:24:92:ad:fb:ab:0a:ac:ca:90:f3:
                    39:c6:7a:b0:30:1e:6f:aa:7a:7a:7d:34:2d:5d:00:
                    86:58:1c:93:d8:9b:54:2b:db:3c:87:f8:b3:4c:f7:
                    52:67:e8:b4:50:25:f0:d4:77:45:eb:f2:ab:89:07:
                    c4:c1:10:7b:9b:3b:ac:f8:bf:ef:24:68:d6:10:65:
                    1a:0a:19:0f:67:aa:5a:54:be:f5:c7:a2:8e:70:ef:
                    2d:22:53:ac:aa:8a:13:9d:75:8e:a9:78:70:87:9c:
                    6f:7b:d3:3c:3f:dd:53:51:e0:2d:36:f2:55:65:2d:
                    fd:50:14:aa:99:15:8a:ca:85:13:84:a8:ea:aa:b1:
                    fe:f4:74:68:6b:43:fd:d4:ff:08:a2:41:46:b7:bb:
                    27:50:34:af:d7:9f:c7:25:36:1f:74:26:b1:8d:f3:
                    61:ba:ed:ec:cb:f5:3e:5a:e4:c4:bb:08:a4:c9:97:
                    5d:49:d8:68:77:27:61:85:ee:dd:be:eb:3f:30:9b:
                    c6:84:e8:8d:1d:a0:9f:1d:a6:59:2f:ab:dd:f2:8a:
                    df:c9:92:a1:2e:74:43:ca:21:40:10:cb:87:2f:66:
                    09:aa:43:f8:88:3a:db:13:9d:3c:d9:af:4d:68:00:
                    78:07:1e:67:70:25:c9:a4:2c:3d:19:a4:f5:60:e4:
                    75:d1:c2:7b:be:09:8b:20:6a:9d:53:59:73:33:f4:
                    ef:bf:52:c9:0c:fd:6b:7c:c3:12:ff:cf:06:0a:e2:
                    48:ca:b0:be:be:0e:19:bc:6b:45:89:3e:72:ad:3a:
                    33:fa:7c:01:d5:b6:4a:f6:52:36:f3:d9:99:ac:60:
                    0e:0e:36:b6:22:84:3d:98:e3:7c:26:91:ac:46:ad:
                    a8:52:f2:e2:5f:68:0e:24:3e:99:ef:eb:c5:a1:da:
                    64:ac:69:6a:1d:ed:c1:36:83:3c:cb:df:5c:db:0a:
                    ae:ce:aa:5e:c0:2c:af:da:65:70:42:67:4e:fe:da:
                    7f:80:71:36:1e:95:6d:e7:00:4f:7e:73:5b:af:62:
                    66:2c:f2:8d:8c:48:e4:3b:55:e2:f9:67:cc:59:6c:
                    f2:0b:28:63:ee:aa:d7:60:d2:27:39:26:30:99:44:
                    00:14:61:f6:c3:bc:dc:a3:53:da:ff:21:25:3f:ed:
                    32:b1:61:e7:cb:4b:d2:24:66:02:27:2a:78:6f:b6:
                    ca:2a:a5
                Exponent: 65537 (0x10001)
        X509v3 extensions:
            X509v3 Key Usage: critical
                Digital Signature, Key Encipherment
            X509v3 Basic Constraints: critical
                CA:FALSE
            X509v3 Extended Key Usage: 
                TLS Web Client Authentication
            X509v3 Subject Key Identifier: 
                EB:EC:BE:56:9B:F3:84:E8:A8:36:58:1B:97:B2:B5:BA:A2:D9:B0:8C
    Signature Algorithm: sha512WithRSAEncryption
         61:27:ec:50:fc:1e:8b:c1:fa:3f:ee:e2:8a:db:6f:af:0f:f5:
         83:a9:da:72:9d:d8:38:ed:7b:18:d6:24:cd:c5:69:19:b9:aa:
         c2:ce:94:37:4a:5d:4b:fa:29:72:be:5b:e7:e6:ec:8b:11:5d:
         bb:12:e0:08:d5:35:4a:ef:e2:eb:f0:d1:c5:d1:bf:c7:c2:7f:
         8c:78:85:db:2e:04:18:c2:8d:2a:f6:4d:ce:a0:b9:16:3b:85:
         24:54:72:bf:5c:81:b8:aa:4d:47:a0:19:5f:9c:79:2f:49:79:
         66:0f:99:21:e6:0b:4e:cd:ee:9e:c7:f6:10:d6:41:cb:68:2c:
         82:7d:6d:69:69:73:75:43:e8:f1:81:37:e0:d7:f1:49:1a:d3:
         5b:a9:39:c3:49:6f:bb:78:35:62:09:e9:ee:12:16:7d:5c:2d:
         b4:83:0d:91:23:1b:2d:55:2b:16:c3:e1:11:39:bf:11:44:5d:
         e1:b7:bc:10:aa:53:07:ff:69:b8:a2:08:70:3b:d2:b3:3b:df:
         7e:97:5d:e9:1f:8e:e1:08:fa:b1:38:f5:b4:09:a2:0d:93:58:
         f1:35:23:ff:c7:9a:9e:4a:34:e8:26:ed:dd:8a:b8:6c:f0:f7:
         8d:6b:af:fb:bc:60:20:4b:7d:c9:17:16:c7:f0:9f:99:ee:f0:
         1f:6c:ce:c8:56:a5:a5:07:76:48:76:8b:13:74:ef:01:51:25:
         b4:77:27:12:86:a8:9e:4d:44:ce:6c:17:b9:60:0b:71:53:64:
         70:2a:de:3c:b7:70:13:03:9c:72:fd:b6:32:f0:97:2b:73:02:
         fc:78:6e:91:0c:d3:94:1e:93:2f:92:b0:06:07:aa:42:bb:47:
         5a:13:f2:cc:4e:b8:a1:3f:dd:91:31:6d:26:e8:de:d4:ef:85:
         be:44:f2:c4:4e:27:0f:d9:c5:d7:80:68:09:45:93:f2:ae:fb:
         d4:5d:93:54:ae:b8:f8:b9:33:e2:f3:53:18:f0:fa:e9:37:1f:
         4a:ab:9a:a6:28:0a:e4:77:b1:fe:70:4b:76:70:c1:ad:bc:8d:
         b8:ae:02:d2:e3:51:4a:42:87:20:e7:bc:81:cc:8e:61:fc:2e:
         f8:c2:52:32:0f:81:5d:13:a8:02:04:30:45:f6:76:e8:60:46:
         45:2e:f2:5c:13:82:70:64:8c:63:37:f1:a3:0e:06:a5:30:88:
         1c:96:c9:9e:bf:77:8b:1d:c5:23:2f:08:d6:8e:84:b4:ef:75:
         b1:64:30:bc:fb:7c:fe:35:56:1f:cc:38:bc:e0:cb:e8:b6:5c:
         04:cc:fd:03:45:85:44:2c:32:29:ef:36:0e:09:ab:3d:fd:b3:
         d9:58:4b:de:b0:50:31:03
-----BEGIN CERTIFICATE-----
MIIFpDCCA4ygAwIBAgIBIjANBgkqhkiG9w0BAQ0FADBsMQswCQYDVQQGEwJDQTEL
MAkGA1UECAwCUWMxDzANBgNVBAcMBlF1ZWJlYzEPMA0GA1UECgwGTXkgT3JnMRow
GAYDVQQLDBFNeSBPcmcgRGVwYXJ0bWVudDESMBAGA1UEAwwJTXkgT3JnIENBMB4X
DTE0MTIyOTA0NDIwNloXDTI0MTIyODA0NDIwNlowaTELMAkGA1UEBhMCQ0ExCzAJ
BgNVBAgMAlFjMQ8wDQYDVQQHDAZRdWViZWMxDzANBgNVBAoMBk15IE9yZzEaMBgG
A1UECwwRTXkgT3JnIERlcGFydG1lbnQxDzANBgNVBAMMBnBsYXllcjCCAiIwDQYJ
KoZIhvcNAQEBBQADggIPADCCAgoCggIBAMNnc64g6e2OvUG2KY8AGBuhIJfQw8s0
UGl4pR7Q48Ey13Uxa+lWFfSJUAtWM+di0VtvVhTzhpvSzzhRGORCkLAkkq37qwqs
ypDzOcZ6sDAeb6p6en00LV0Ahlgck9ibVCvbPIf4s0z3UmfotFAl8NR3Revyq4kH
xMEQe5s7rPi/7yRo1hBlGgoZD2eqWlS+9ceijnDvLSJTrKqKE511jql4cIecb3vT
PD/dU1HgLTbyVWUt/VAUqpkVisqFE4So6qqx/vR0aGtD/dT/CKJBRre7J1A0r9ef
xyU2H3QmsY3zYbrt7Mv1PlrkxLsIpMmXXUnYaHcnYYXu3b7rPzCbxoTojR2gnx2m
WS+r3fKK38mSoS50Q8ohQBDLhy9mCapD+Ig62xOdPNmvTWgAeAceZ3AlyaQsPRmk
9WDkddHCe74JiyBqnVNZczP0779SyQz9a3zDEv/PBgriSMqwvr4OGbxrRYk+cq06
M/p8AdW2SvZSNvPZmaxgDg42tiKEPZjjfCaRrEatqFLy4l9oDiQ+me/rxaHaZKxp
ah3twTaDPMvfXNsKrs6qXsAsr9plcEJnTv7af4BxNh6VbecAT35zW69iZizyjYxI
5DtV4vlnzFls8gsoY+6q12DSJzkmMJlEABRh9sO83KNT2v8hJT/tMrFh58tL0iRm
AicqeG+2yiqlAgMBAAGjVDBSMA4GA1UdDwEB/wQEAwIFoDAMBgNVHRMBAf8EAjAA
MBMGA1UdJQQMMAoGCCsGAQUFBwMCMB0GA1UdDgQWBBTr7L5Wm/OE6Kg2WBuXsrW6
otmwjDANBgkqhkiG9w0BAQ0FAAOCAgEAYSfsUPwei8H6P+7iittvrw/1g6nacp3Y
OO17GNYkzcVpGbmqws6UN0pdS/opcr5b5+bsixFduxLgCNU1Su/i6/DRxdG/x8J/
jHiF2y4EGMKNKvZNzqC5FjuFJFRyv1yBuKpNR6AZX5x5L0l5Zg+ZIeYLTs3unsf2
ENZBy2gsgn1taWlzdUPo8YE34NfxSRrTW6k5w0lvu3g1Ygnp7hIWfVwttIMNkSMb
LVUrFsPhETm/EURd4be8EKpTB/9puKIIcDvSszvffpdd6R+O4Qj6sTj1tAmiDZNY
8TUj/8eanko06Cbt3Yq4bPD3jWuv+7xgIEt9yRcWx/Cfme7wH2zOyFalpQd2SHaL
E3TvAVEltHcnEoaonk1EzmwXuWALcVNkcCrePLdwEwOccv22MvCXK3MC/HhukQzT
lB6TL5KwBgeqQrtHWhPyzE64oT/dkTFtJuje1O+FvkTyxE4nD9nF14BoCUWT8q77
1F2TVK64+Lkz4vNTGPD66TcfSquapigK5Hex/nBLdnDBrbyNuK4C0uNRSkKHIOe8
gcyOYfwu+MJSMg+BXROoAgQwRfZ26GBGRS7yXBOCcGSMYzfxow4GpTCIHJbJnr93
ix3FIy8I1o6EtO91sWQwvPt8/jVWH8w4vODL6LZcBMz9A0WFRCwyKe82DgmrPf2z
2VhL3rBQMQM=
-----END CERTIFICATE-----
