Certificate:
    Data:
        Version: 3 (0x2)
        Serial Number: 5 (0x5)
    Signature Algorithm: sha512WithRSAEncryption
        Issuer: DC=hf, O=Hackfest 2014, OU=Hackfest scoreboard root CA, CN=Hackfest scoreboard root CA
        Validity
            Not Before: Oct  4 20:06:14 2014 GMT
            Not After : Oct  3 20:06:14 2016 GMT
        Subject: DC=hf, O=Hackfest 2014, OU=Hackfest scoreboard client CA, CN=flagupdater
        Subject Public Key Info:
            Public Key Algorithm: rsaEncryption
                Public-Key: (4096 bit)
                Modulus:
                    00:d8:9d:1d:e6:7c:45:16:46:d0:c7:1a:ab:b9:2b:
                    b5:18:79:33:b1:0a:01:88:e6:5a:b3:a3:13:f5:84:
                    0a:b2:cb:b5:99:75:a4:9a:4f:ba:2d:56:91:26:e2:
                    98:69:9d:df:44:67:41:6d:e9:1e:81:30:0a:0f:b4:
                    f6:14:93:ed:99:dc:bc:ca:1f:80:85:f8:03:ec:33:
                    57:c3:09:ac:5b:b1:08:f8:75:30:f3:95:19:ad:5e:
                    98:31:34:3f:aa:af:8a:cc:a1:31:7e:ba:85:17:63:
                    c7:4a:f7:0b:ea:52:89:9f:12:ce:de:6e:1f:a5:ce:
                    34:e2:6c:ce:f3:8c:67:6d:f4:eb:c0:38:0c:ec:43:
                    d0:98:50:ae:4c:15:8b:78:6e:d7:b6:f2:fe:7c:5e:
                    3b:c1:1b:e9:8a:98:48:41:3d:97:b7:f2:cd:7c:53:
                    7d:e7:a8:52:4f:89:8c:ba:40:8a:78:94:24:d4:46:
                    4c:bc:f2:28:24:fc:81:97:92:a1:10:f9:e6:fa:e6:
                    70:3d:24:fe:3f:02:b9:22:46:a8:8b:21:96:67:e0:
                    8a:79:69:2d:77:12:f8:6b:ae:0d:9f:43:fe:98:9d:
                    9f:e8:42:f5:2b:e7:6e:a0:3f:53:c1:44:ae:9e:e4:
                    e8:82:dd:08:dd:bc:27:d0:f9:d0:a0:96:89:4d:83:
                    4f:d2:af:72:59:f5:24:e4:bc:38:7b:7b:e0:e8:38:
                    ee:39:af:14:c1:2b:db:5b:57:5d:95:c5:35:5a:5f:
                    d2:96:4c:dc:11:44:cd:52:f5:ad:c7:52:1e:80:e9:
                    71:8f:55:50:02:40:dc:7c:72:32:3f:2c:15:d9:21:
                    ea:6f:f7:a6:ce:8d:ed:29:bf:71:da:82:54:a3:33:
                    39:83:82:b2:8a:f1:8f:b7:3d:81:c5:7e:f1:44:90:
                    d0:f0:48:f4:40:cb:d9:5e:08:1a:6c:99:95:33:e9:
                    6c:a0:42:1a:0d:ba:1f:a0:ce:22:56:69:b5:ad:6a:
                    8d:6d:82:b7:59:4c:dd:48:32:eb:53:d6:bd:dd:ff:
                    39:82:90:67:91:95:6e:a0:1a:06:aa:40:41:21:93:
                    36:78:bf:8b:c0:4f:d9:fc:fe:04:8e:dc:2c:31:67:
                    e4:54:7f:cb:ba:9c:e9:bd:a9:5a:24:42:da:ab:12:
                    dc:1b:18:38:89:35:30:81:9e:82:a0:d2:9b:2f:69:
                    cc:14:07:bb:88:3f:d5:17:da:e0:53:4c:e5:8c:b2:
                    2f:b3:e5:a4:0f:04:34:72:3d:fc:9c:6c:c2:0e:29:
                    33:0c:60:1e:ab:7e:04:60:b8:98:7a:f9:f5:63:80:
                    35:8a:ab:01:a5:ab:39:5d:6d:3e:3d:a0:ba:c4:30:
                    d6:7f:bf
                Exponent: 65537 (0x10001)
        X509v3 extensions:
            X509v3 Key Usage: critical
                Digital Signature, Key Encipherment
            X509v3 Basic Constraints: 
                CA:FALSE
            X509v3 Extended Key Usage: 
                TLS Web Server Authentication, TLS Web Client Authentication
            X509v3 Subject Key Identifier: 
                03:3A:CB:DA:73:25:87:A2:78:CB:20:11:61:88:D1:F8:0A:9D:92:5B
            X509v3 Authority Key Identifier: 
                keyid:36:00:4E:00:7F:AA:0E:17:89:5C:17:D7:50:86:8E:A4:01:EE:06:DB

            X509v3 Subject Alternative Name: 
                DNS:scoreboard.hf
    Signature Algorithm: sha512WithRSAEncryption
         ae:7f:30:2c:e4:bd:5c:bf:b7:16:7d:c7:41:aa:fb:d5:66:c6:
         f3:9b:dc:cc:57:65:0d:85:ec:53:14:1c:78:1b:be:24:07:de:
         9c:2e:0f:9e:dd:f3:8d:39:2f:0b:51:a2:77:d3:c0:cf:c4:3b:
         07:2e:c7:98:2b:c3:6c:eb:04:60:4e:b3:36:77:97:99:de:3a:
         b7:f3:bc:1c:a3:6a:c1:72:70:55:71:3f:2f:5f:de:0e:32:e2:
         27:2f:b6:4e:88:ee:4a:66:0a:ac:fc:ae:0c:2c:ac:c0:af:26:
         26:d0:89:7c:1f:db:64:16:17:7f:22:7a:6f:ac:f1:04:a3:b7:
         a4:fb:4b:e8:79:40:ba:dd:9f:18:8d:7d:3f:6c:65:80:90:cd:
         64:4d:08:74:e6:2d:a6:3e:ef:ad:68:9c:47:ba:f9:26:db:cb:
         d3:1e:f8:04:b9:66:49:c0:9c:48:3d:e6:ac:a3:bd:09:8a:10:
         01:91:da:06:bd:d6:85:dc:37:59:99:fe:0b:cf:2c:a2:3d:56:
         9d:08:77:49:27:d3:cf:1a:89:51:d1:51:ad:13:41:16:95:55:
         a6:c5:fc:76:6e:c0:fa:e1:d4:e1:4a:5c:26:4a:28:df:b1:17:
         40:12:68:c1:99:de:8b:73:d8:08:d1:fc:07:8a:fa:86:ca:69:
         ad:53:1c:a0:d2:b3:b7:46:71:85:c9:a6:5d:cb:07:d4:45:7c:
         af:19:dc:84:89:b6:e0:76:7c:82:26:03:16:1c:11:4d:81:e9:
         0a:91:ea:53:c4:fc:d5:f7:38:0a:b5:e4:cd:20:58:3c:db:e6:
         f3:db:42:f3:26:e6:b7:e3:2a:35:0b:a9:c9:b3:cb:82:2f:b4:
         b3:ca:55:9c:1c:2e:93:3e:47:a0:c0:a1:02:96:78:21:f7:bf:
         fe:af:c1:24:17:fa:02:d5:3b:ea:cd:b7:95:9b:31:73:32:aa:
         41:2b:45:54:fa:03:c0:ed:7d:a8:94:10:c8:c9:22:57:93:18:
         af:56:4d:31:e8:38:3b:d0:d9:ab:fd:a2:f2:2b:2c:62:bc:1c:
         ba:84:72:62:6d:18:4c:96:b7:f6:a4:0c:f2:c3:14:7a:38:05:
         19:ce:32:36:d4:0b:d6:5f:6e:4a:7c:f1:f8:ba:df:f1:50:07:
         d5:a4:b9:69:d0:6f:63:ab:d3:c5:47:ca:9d:97:51:19:37:b9:
         7b:c2:d5:ad:d4:bb:65:26:c1:a1:00:c5:05:96:ba:2a:95:67:
         11:d0:e8:2a:65:24:ff:0b:70:07:40:19:51:cd:fd:76:3d:cf:
         49:cd:6e:9f:3a:df:f5:56:f7:a7:37:47:2d:ea:66:55:a3:5d:
         5c:76:b2:4b:76:13:51:a7
-----BEGIN CERTIFICATE-----
MIIF9TCCA92gAwIBAgIBBTANBgkqhkiG9w0BAQ0FADB4MRIwEAYKCZImiZPyLGQB
GRYCaGYxFjAUBgNVBAoMDUhhY2tmZXN0IDIwMTQxJDAiBgNVBAsMG0hhY2tmZXN0
IHNjb3JlYm9hcmQgcm9vdCBDQTEkMCIGA1UEAwwbSGFja2Zlc3Qgc2NvcmVib2Fy
ZCByb290IENBMB4XDTE0MTAwNDIwMDYxNFoXDTE2MTAwMzIwMDYxNFowajESMBAG
CgmSJomT8ixkARkWAmhmMRYwFAYDVQQKDA1IYWNrZmVzdCAyMDE0MSYwJAYDVQQL
DB1IYWNrZmVzdCBzY29yZWJvYXJkIGNsaWVudCBDQTEUMBIGA1UEAwwLZmxhZ3Vw
ZGF0ZXIwggIiMA0GCSqGSIb3DQEBAQUAA4ICDwAwggIKAoICAQDYnR3mfEUWRtDH
Gqu5K7UYeTOxCgGI5lqzoxP1hAqyy7WZdaSaT7otVpEm4phpnd9EZ0Ft6R6BMAoP
tPYUk+2Z3LzKH4CF+APsM1fDCaxbsQj4dTDzlRmtXpgxND+qr4rMoTF+uoUXY8dK
9wvqUomfEs7ebh+lzjTibM7zjGdt9OvAOAzsQ9CYUK5MFYt4bte28v58XjvBG+mK
mEhBPZe38s18U33nqFJPiYy6QIp4lCTURky88igk/IGXkqEQ+eb65nA9JP4/Arki
RqiLIZZn4Ip5aS13Evhrrg2fQ/6YnZ/oQvUr526gP1PBRK6e5OiC3QjdvCfQ+dCg
lolNg0/Sr3JZ9STkvDh7e+DoOO45rxTBK9tbV12VxTVaX9KWTNwRRM1S9a3HUh6A
6XGPVVACQNx8cjI/LBXZIepv96bOje0pv3HaglSjMzmDgrKK8Y+3PYHFfvFEkNDw
SPRAy9leCBpsmZUz6WygQhoNuh+gziJWabWtao1tgrdZTN1IMutT1r3d/zmCkGeR
lW6gGgaqQEEhkzZ4v4vAT9n8/gSO3CwxZ+RUf8u6nOm9qVokQtqrEtwbGDiJNTCB
noKg0psvacwUB7uIP9UX2uBTTOWMsi+z5aQPBDRyPfycbMIOKTMMYB6rfgRguJh6
+fVjgDWKqwGlqzldbT49oLrEMNZ/vwIDAQABo4GXMIGUMA4GA1UdDwEB/wQEAwIF
oDAJBgNVHRMEAjAAMB0GA1UdJQQWMBQGCCsGAQUFBwMBBggrBgEFBQcDAjAdBgNV
HQ4EFgQUAzrL2nMlh6J4yyARYYjR+AqdklswHwYDVR0jBBgwFoAUNgBOAH+qDheJ
XBfXUIaOpAHuBtswGAYDVR0RBBEwD4INc2NvcmVib2FyZC5oZjANBgkqhkiG9w0B
AQ0FAAOCAgEArn8wLOS9XL+3Fn3HQar71WbG85vczFdlDYXsUxQceBu+JAfenC4P
nt3zjTkvC1Gid9PAz8Q7By7HmCvDbOsEYE6zNneXmd46t/O8HKNqwXJwVXE/L1/e
DjLiJy+2TojuSmYKrPyuDCyswK8mJtCJfB/bZBYXfyJ6b6zxBKO3pPtL6HlAut2f
GI19P2xlgJDNZE0IdOYtpj7vrWicR7r5JtvL0x74BLlmScCcSD3mrKO9CYoQAZHa
Br3Whdw3WZn+C88soj1WnQh3SSfTzxqJUdFRrRNBFpVVpsX8dm7A+uHU4UpcJkoo
37EXQBJowZnei3PYCNH8B4r6hspprVMcoNKzt0ZxhcmmXcsH1EV8rxnchIm24HZ8
giYDFhwRTYHpCpHqU8T81fc4CrXkzSBYPNvm89tC8ybmt+MqNQupybPLgi+0s8pV
nBwukz5HoMChApZ4Ife//q/BJBf6AtU76s23lZsxczKqQStFVPoDwO19qJQQyMki
V5MYr1ZNMeg4O9DZq/2i8issYrwcuoRyYm0YTJa39qQM8sMUejgFGc4yNtQL1l9u
Snzx+Lrf8VAH1aS5adBvY6vTxUfKnZdRGTe5e8LVrdS7ZSbBoQDFBZa6KpVnEdDo
KmUk/wtwB0AZUc39dj3PSc1unzrf9Vb3pzdHLepmVaNdXHayS3YTUac=
-----END CERTIFICATE-----
