Certificate:
    Data:
        Version: 3 (0x2)
        Serial Number: 35 (0x23)
    Signature Algorithm: sha512WithRSAEncryption
        Issuer: C=CA, ST=Qc, L=Quebec, O=My Org, OU=My Org Department, CN=My Org CA
        Validity
            Not Before: Dec 28 05:09:25 2014 GMT
            Not After : Dec 27 05:09:25 2024 GMT
        Subject: C=CA, ST=Qc, L=Quebec, O=My Org, OU=My Org Department, CN=flagupdater
        Subject Public Key Info:
            Public Key Algorithm: rsaEncryption
                Public-Key: (4096 bit)
                Modulus:
                    00:f7:c6:5a:2d:3e:6c:78:1e:40:cc:2d:ef:8e:eb:
                    b3:3a:a3:98:6f:1f:02:0c:53:cf:0e:66:12:36:a2:
                    46:77:dc:cf:1d:3e:12:ef:51:a5:ab:eb:70:75:4c:
                    b7:e7:15:6e:0f:03:59:d8:2a:bb:bb:ca:fa:44:29:
                    35:23:dc:3e:88:e8:4d:15:10:23:81:1a:1e:f0:3e:
                    00:75:76:34:2c:2f:f2:ad:92:5c:6c:34:84:76:08:
                    3f:2f:18:a2:81:31:e6:7b:71:e0:5f:c2:d6:8c:59:
                    e0:f1:43:a4:8e:b0:e3:d6:20:88:5d:9e:26:66:d8:
                    b5:05:c6:82:8e:bb:c9:92:56:ae:e1:e8:c7:31:d9:
                    53:04:52:0f:e5:0f:71:b3:f8:f7:cb:f8:58:3e:90:
                    d7:1a:11:e1:cb:c8:4e:e8:32:5e:1a:19:98:32:e2:
                    e4:97:94:7f:c8:43:ae:37:b1:28:da:a1:ec:02:68:
                    0d:47:56:5c:2c:75:99:73:25:a2:dd:21:c2:c1:1b:
                    6a:0c:91:44:6d:87:f7:89:81:1d:a7:dd:ab:3f:c4:
                    8f:f1:95:c5:c1:00:ac:4e:98:be:39:b6:f9:41:82:
                    64:b0:b4:6b:2c:ee:6d:02:a8:1b:b6:8e:e4:cf:ed:
                    dd:73:e3:bd:bf:6e:5e:5d:05:76:1b:9f:e2:81:5c:
                    8b:ce:60:d5:3f:ef:a6:63:c9:58:72:2a:c9:40:8c:
                    de:89:c1:54:08:b9:d9:72:7f:ac:30:af:ec:15:de:
                    07:ad:88:03:e3:da:19:35:42:da:f6:47:53:22:ca:
                    70:49:ac:ec:c6:8e:68:42:0c:19:85:fd:68:58:eb:
                    11:ed:de:5f:10:c4:4a:3c:08:9f:3c:f5:ae:2d:ae:
                    f1:a2:a8:09:e2:7e:dd:da:bb:c2:10:85:87:fa:1c:
                    42:69:80:1a:13:ef:75:64:66:3f:3c:ad:8c:21:db:
                    21:af:60:72:5a:e2:3a:84:60:11:b2:9a:48:73:00:
                    e6:49:ec:d1:18:9f:c9:42:06:ea:7a:e9:11:ef:f6:
                    8a:33:91:9b:cb:3a:b8:b7:89:4b:79:08:e9:11:e8:
                    e7:c6:b2:fc:1d:21:a2:56:b7:d7:d7:7d:8a:36:93:
                    c2:ef:ac:4b:80:ad:5f:0b:78:e0:66:fb:0a:a1:66:
                    93:3e:6d:9b:c0:ac:d9:47:dd:29:b3:71:ee:d8:04:
                    97:37:3e:95:e9:79:8d:5a:3f:ea:a7:8b:36:68:b6:
                    01:f1:ee:e3:7b:6d:56:f2:f8:72:7d:08:e9:15:07:
                    fb:4d:da:05:00:f1:37:90:69:3e:ca:73:41:f0:d7:
                    64:1f:5f:20:06:b3:78:9d:67:f5:fb:99:97:36:59:
                    e7:f2:5d
                Exponent: 65537 (0x10001)
        X509v3 extensions:
            X509v3 Key Usage: critical
                Digital Signature, Key Encipherment
            X509v3 Basic Constraints: critical
                CA:FALSE
            X509v3 Extended Key Usage: 
                TLS Web Client Authentication
            X509v3 Subject Key Identifier: 
                36:E9:59:FA:9B:CD:AA:D7:97:D1:6E:E4:BD:1B:39:40:18:48:03:F5
    Signature Algorithm: sha512WithRSAEncryption
         80:72:87:55:72:08:bf:04:ac:72:1e:fe:b0:fb:ab:7b:a0:7a:
         9e:3b:2b:94:2c:bc:bb:4c:03:8c:21:00:f8:5a:89:5a:04:e3:
         b8:ac:0a:e5:b7:dd:e9:48:9b:44:02:29:ba:bd:cd:f0:c6:fd:
         68:e7:90:de:89:14:4a:f7:0b:e2:92:03:3f:b0:0f:6c:ea:ae:
         b1:64:2c:57:3a:8c:9c:d3:b6:2c:fe:f6:c9:72:91:3f:b1:e1:
         f9:ec:2f:27:8d:70:b3:68:f5:25:24:b1:a2:f9:97:f9:e6:4b:
         88:6c:a3:b8:a8:51:b0:64:d7:02:be:21:04:76:7e:32:df:b0:
         a0:e6:ee:57:4f:b0:9c:06:f4:a2:3c:13:b5:af:8b:31:c4:d0:
         6e:81:ab:21:64:20:8a:f9:6e:68:47:ba:8a:5b:3f:29:ea:bd:
         1f:f1:8c:6f:a2:af:01:08:c7:62:60:a8:56:9b:be:5e:7e:a3:
         06:1d:9e:de:7a:90:5b:c6:39:84:99:3a:3e:8c:86:20:20:f0:
         80:8d:75:cb:7d:0b:3e:ec:bb:67:08:0e:15:c5:50:52:ee:ba:
         d4:e7:81:c7:ad:f0:ae:88:43:91:d4:15:f4:ce:7d:2f:a1:22:
         d2:07:38:e7:9a:51:57:ba:26:79:f8:cb:23:7d:94:04:86:9a:
         0c:19:9b:5c:7f:7b:ac:be:4b:88:4d:39:a5:48:40:fe:4b:f7:
         62:7a:6e:23:92:c0:5b:c6:d8:fe:eb:00:8c:96:2f:b3:ad:f1:
         24:c4:5c:bb:36:2e:ca:c8:d8:75:6e:df:d5:64:de:84:78:2d:
         2d:95:aa:2e:38:3a:fe:3b:a2:9b:39:ac:a0:2b:78:90:25:92:
         ae:9b:07:f5:18:8a:64:5f:95:df:e6:08:71:3f:cb:9b:91:cb:
         d0:d2:50:1b:41:b7:28:46:f0:8a:d2:bd:a3:3f:2c:3c:a1:ad:
         45:c0:8e:e2:0c:8e:ca:2f:e2:2c:5a:20:2b:c6:17:4c:af:67:
         93:dc:aa:1b:b5:68:ae:ae:55:de:0f:74:7f:85:06:28:fc:20:
         5f:a4:3d:ed:93:cc:4f:19:4b:a4:49:64:de:5d:20:5b:c9:cb:
         ce:21:11:63:59:04:78:56:88:f9:cc:94:80:56:50:3d:5a:ec:
         4f:a9:4c:ff:52:e8:98:76:8e:f4:7f:91:0f:60:80:0f:ed:13:
         09:af:d7:9e:ff:66:af:a9:f4:1a:3c:d3:ca:ad:4f:d2:96:f6:
         34:7b:c7:84:87:02:83:41:9d:84:68:e4:52:cd:c3:76:91:92:
         a1:2f:15:34:92:d9:50:c2:00:fd:15:4d:a0:8f:b5:3b:c5:5e:
         81:a3:d7:ff:69:4c:b0:32
-----BEGIN CERTIFICATE-----
MIIFqTCCA5GgAwIBAgIBIzANBgkqhkiG9w0BAQ0FADBsMQswCQYDVQQGEwJDQTEL
MAkGA1UECAwCUWMxDzANBgNVBAcMBlF1ZWJlYzEPMA0GA1UECgwGTXkgT3JnMRow
GAYDVQQLDBFNeSBPcmcgRGVwYXJ0bWVudDESMBAGA1UEAwwJTXkgT3JnIENBMB4X
DTE0MTIyODA1MDkyNVoXDTI0MTIyNzA1MDkyNVowbjELMAkGA1UEBhMCQ0ExCzAJ
BgNVBAgMAlFjMQ8wDQYDVQQHDAZRdWViZWMxDzANBgNVBAoMBk15IE9yZzEaMBgG
A1UECwwRTXkgT3JnIERlcGFydG1lbnQxFDASBgNVBAMMC2ZsYWd1cGRhdGVyMIIC
IjANBgkqhkiG9w0BAQEFAAOCAg8AMIICCgKCAgEA98ZaLT5seB5AzC3vjuuzOqOY
bx8CDFPPDmYSNqJGd9zPHT4S71Glq+twdUy35xVuDwNZ2Cq7u8r6RCk1I9w+iOhN
FRAjgRoe8D4AdXY0LC/yrZJcbDSEdgg/LxiigTHme3HgX8LWjFng8UOkjrDj1iCI
XZ4mZti1BcaCjrvJklau4ejHMdlTBFIP5Q9xs/j3y/hYPpDXGhHhy8hO6DJeGhmY
MuLkl5R/yEOuN7Eo2qHsAmgNR1ZcLHWZcyWi3SHCwRtqDJFEbYf3iYEdp92rP8SP
8ZXFwQCsTpi+Obb5QYJksLRrLO5tAqgbto7kz+3dc+O9v25eXQV2G5/igVyLzmDV
P++mY8lYcirJQIzeicFUCLnZcn+sMK/sFd4HrYgD49oZNULa9kdTIspwSazsxo5o
QgwZhf1oWOsR7d5fEMRKPAifPPWuLa7xoqgJ4n7d2rvCEIWH+hxCaYAaE+91ZGY/
PK2MIdshr2ByWuI6hGARsppIcwDmSezRGJ/JQgbqeukR7/aKM5Gbyzq4t4lLeQjp
EejnxrL8HSGiVrfX132KNpPC76xLgK1fC3jgZvsKoWaTPm2bwKzZR90ps3Hu2ASX
Nz6V6XmNWj/qp4s2aLYB8e7je21W8vhyfQjpFQf7TdoFAPE3kGk+ynNB8NdkH18g
BrN4nWf1+5mXNlnn8l0CAwEAAaNUMFIwDgYDVR0PAQH/BAQDAgWgMAwGA1UdEwEB
/wQCMAAwEwYDVR0lBAwwCgYIKwYBBQUHAwIwHQYDVR0OBBYEFDbpWfqbzarXl9Fu
5L0bOUAYSAP1MA0GCSqGSIb3DQEBDQUAA4ICAQCAcodVcgi/BKxyHv6w+6t7oHqe
OyuULLy7TAOMIQD4WolaBOO4rArlt93pSJtEAim6vc3wxv1o55DeiRRK9wvikgM/
sA9s6q6xZCxXOoyc07Ys/vbJcpE/seH57C8njXCzaPUlJLGi+Zf55kuIbKO4qFGw
ZNcCviEEdn4y37Cg5u5XT7CcBvSiPBO1r4sxxNBugashZCCK+W5oR7qKWz8p6r0f
8Yxvoq8BCMdiYKhWm75efqMGHZ7eepBbxjmEmTo+jIYgIPCAjXXLfQs+7LtnCA4V
xVBS7rrU54HHrfCuiEOR1BX0zn0voSLSBzjnmlFXuiZ5+MsjfZQEhpoMGZtcf3us
vkuITTmlSED+S/diem4jksBbxtj+6wCMli+zrfEkxFy7Ni7KyNh1bt/VZN6EeC0t
laouODr+O6KbOaygK3iQJZKumwf1GIpkX5Xf5ghxP8ubkcvQ0lAbQbcoRvCK0r2j
Pyw8oa1FwI7iDI7KL+IsWiArxhdMr2eT3KobtWiurlXeD3R/hQYo/CBfpD3tk8xP
GUukSWTeXSBbycvOIRFjWQR4Voj5zJSAVlA9WuxPqUz/UuiYdo70f5EPYIAP7RMJ
r9ee/2avqfQaPNPKrU/SlvY0e8eEhwKDQZ2EaORSzcN2kZKhLxU0ktlQwgD9FU2g
j7U7xV6Bo9f/aUywMg==
-----END CERTIFICATE-----
