Certificate:
    Data:
        Version: 3 (0x2)
        Serial Number: 1 (0x1)
    Signature Algorithm: sha512WithRSAEncryption
        Issuer: DC=hf, O=Hackfest 2014, OU=Hackfest mon2k14 root CA, CN=Hackfest mon2k14 root CA
        Validity
            Not Before: Aug  4 18:55:27 2014 GMT
            Not After : Aug  3 18:55:27 2016 GMT
        Subject: DC=hf, O=Hackfest 2014, OU=Hackfest mon2k14 root CA, CN=Hackfest mon2k14 root CA
        Subject Public Key Info:
            Public Key Algorithm: rsaEncryption
                Public-Key: (4096 bit)
                Modulus:
                    00:ec:08:de:7f:b8:53:02:53:cd:cd:a0:02:f7:c6:
                    69:eb:6d:7d:c6:ae:0e:27:19:4e:4d:b4:b5:3f:80:
                    f7:24:41:5a:38:de:86:e8:32:34:12:38:c6:a1:2e:
                    02:a4:3c:de:24:dd:e7:c6:03:78:d3:09:3b:9a:60:
                    ef:31:4e:62:14:ad:ca:c7:02:3c:33:be:45:dc:96:
                    86:a1:f5:fc:17:a1:74:94:6e:5d:37:a0:3a:4b:9a:
                    93:73:d5:8f:59:03:e9:b6:58:19:f0:97:e3:11:22:
                    df:2a:64:cf:3f:ab:97:ff:4d:17:34:08:86:52:6e:
                    1b:8a:42:73:37:35:84:1a:fd:04:ae:68:de:b8:45:
                    21:2b:56:33:f8:33:aa:21:50:44:6c:f0:fb:7f:7f:
                    70:0b:bf:38:7e:c9:22:52:d3:df:f1:af:36:63:4d:
                    94:17:00:1e:95:28:d0:13:97:95:e6:3e:8b:59:21:
                    64:fd:0d:7e:b7:4a:af:af:c3:6c:e4:a0:94:a6:25:
                    71:45:a9:ae:07:39:a8:b8:65:cb:39:c4:37:48:47:
                    21:64:d7:11:40:73:ea:0a:04:c7:ef:c3:fd:11:10:
                    1d:69:2a:96:2f:5f:08:0c:38:29:0f:c7:67:a6:ba:
                    73:1f:71:a1:0b:24:8e:c8:60:d6:63:8f:59:3a:8b:
                    bc:36:86:1c:89:e1:7c:08:85:90:12:a4:31:19:59:
                    a9:cb:57:cd:84:8a:41:20:f9:59:a4:2d:00:1f:97:
                    7e:08:e2:68:69:80:83:b2:7f:12:fe:97:9c:84:95:
                    aa:a0:ec:3c:98:8b:ff:45:7e:35:f5:fc:66:b2:be:
                    dc:b6:ff:31:fa:2c:b2:f4:9d:96:0e:aa:5d:42:10:
                    e2:16:b2:16:d9:4d:31:e8:73:67:a8:d9:25:5f:9d:
                    ba:84:d1:2a:d4:7f:9f:a3:ff:9f:4f:93:41:ce:d1:
                    57:2a:04:a5:46:e4:5b:bc:ae:b0:02:76:df:89:2b:
                    2a:26:a4:9b:40:6e:ac:e6:7d:fe:32:9d:01:a4:d5:
                    3b:bf:a9:27:37:3a:60:e7:c3:a3:4b:30:1d:77:f0:
                    c5:2f:c9:96:3f:11:05:9b:3d:fb:67:46:61:e6:bf:
                    22:82:cc:be:96:8c:38:d4:83:e2:e1:1b:42:f8:e7:
                    57:bb:14:65:83:c2:8e:34:08:df:95:83:fc:ad:9a:
                    71:01:41:1e:4e:0d:9f:04:6c:80:44:3c:2b:a7:ea:
                    97:0f:66:25:43:75:b2:df:4a:2a:59:6d:ae:8e:fb:
                    7c:42:60:e2:53:f4:5c:96:6e:04:11:92:b6:fe:c0:
                    c1:d1:c9:2e:53:e2:d8:69:0f:07:b1:bd:5d:80:94:
                    0f:a6:7f
                Exponent: 65537 (0x10001)
        X509v3 extensions:
            X509v3 Key Usage: critical
                Certificate Sign, CRL Sign
            X509v3 Basic Constraints: critical
                CA:TRUE
            X509v3 Subject Key Identifier: 
                10:ED:51:C8:68:90:F9:2B:E3:4B:CA:07:D9:B6:B7:70:DD:BB:5F:12
            X509v3 Authority Key Identifier: 
                keyid:10:ED:51:C8:68:90:F9:2B:E3:4B:CA:07:D9:B6:B7:70:DD:BB:5F:12

    Signature Algorithm: sha512WithRSAEncryption
         c9:8b:c1:ae:47:0d:f2:21:67:99:f6:8a:c3:d5:c0:d9:13:36:
         2a:65:49:10:9e:ab:e1:f0:b5:e5:0e:2b:4d:c7:96:f4:20:86:
         4d:05:95:ac:1a:68:7c:ab:31:03:47:25:74:93:ff:eb:11:b6:
         ed:a5:d3:52:fc:3b:93:91:fc:2a:44:a0:45:0a:fe:11:86:a5:
         15:88:a0:e0:0d:2b:c2:94:3b:4c:11:14:7d:35:34:b5:ce:dc:
         55:72:a6:ed:92:25:90:39:ae:fc:1d:3d:55:df:96:1e:6c:9c:
         80:ee:f2:ec:bd:4a:04:d0:ab:cc:7a:9f:8d:70:fd:de:74:77:
         b1:d5:1c:c8:d1:37:b5:8f:4f:4e:a4:c0:e9:7d:03:f3:61:d3:
         d4:da:48:5c:81:e6:44:20:5f:b7:3d:3e:cc:db:36:71:7d:f8:
         17:db:38:ae:51:04:24:22:31:b4:ff:12:03:51:64:8c:f4:8e:
         e6:23:aa:99:a8:2d:9b:94:1f:9e:4f:4d:69:dc:bf:a8:90:d0:
         77:32:a0:b9:4c:4b:0c:59:46:6c:df:2a:4e:1b:f2:e9:52:bd:
         41:03:2e:c0:a3:f6:2d:eb:d4:01:dd:ec:be:53:91:ab:e5:2a:
         87:9f:5d:67:9f:6a:6d:69:4d:29:da:36:b0:f7:27:4c:52:88:
         2e:22:c6:51:08:2b:99:3f:1f:a4:fd:06:5d:5c:3e:1c:34:51:
         2c:42:3d:6d:61:9d:47:67:5b:65:ec:f5:31:b4:86:d1:58:ea:
         12:2d:0d:08:25:c5:26:1e:d4:b1:30:3e:54:06:6c:d3:ed:96:
         d6:a6:c4:f8:88:8c:6d:69:c4:17:ec:c6:59:18:1e:fb:f9:65:
         c8:95:fc:54:9b:02:02:52:20:9c:47:cd:fc:2f:65:58:45:c4:
         c1:59:f6:6c:2f:8d:34:3d:fe:ba:37:96:4c:94:60:2d:b0:db:
         45:ca:f7:5e:7e:9a:58:55:f8:43:cd:61:e6:a4:2f:79:e8:d6:
         38:54:a7:24:bf:d5:2f:2b:b9:8b:9f:d7:32:6a:ca:1b:40:63:
         36:50:f9:aa:df:ac:36:8d:e4:87:a6:83:92:a5:c4:ff:a4:d9:
         34:8d:c2:f1:a9:c5:24:71:46:bb:ac:b0:ef:38:68:b0:7a:22:
         4b:98:cf:93:40:04:d3:ad:7c:14:c4:47:54:e5:9d:0a:8e:c1:
         87:bd:17:71:0d:05:91:3d:49:5b:a7:10:15:5e:79:4c:3d:ea:
         40:85:1d:6f:b2:f1:04:ad:b8:1c:fc:3f:0c:44:e1:57:0a:c7:
         93:98:ac:f5:ac:03:83:de:32:01:c3:70:f8:e1:ac:75:21:12:
         1d:fd:74:95:67:b7:32:c0
-----BEGIN CERTIFICATE-----
MIIFwjCCA6qgAwIBAgIBATANBgkqhkiG9w0BAQ0FADByMRIwEAYKCZImiZPyLGQB
GRYCaGYxFjAUBgNVBAoMDUhhY2tmZXN0IDIwMTQxITAfBgNVBAsMGEhhY2tmZXN0
IG1vbjJrMTQgcm9vdCBDQTEhMB8GA1UEAwwYSGFja2Zlc3QgbW9uMmsxNCByb290
IENBMB4XDTE0MDgwNDE4NTUyN1oXDTE2MDgwMzE4NTUyN1owcjESMBAGCgmSJomT
8ixkARkWAmhmMRYwFAYDVQQKDA1IYWNrZmVzdCAyMDE0MSEwHwYDVQQLDBhIYWNr
ZmVzdCBtb24yazE0IHJvb3QgQ0ExITAfBgNVBAMMGEhhY2tmZXN0IG1vbjJrMTQg
cm9vdCBDQTCCAiIwDQYJKoZIhvcNAQEBBQADggIPADCCAgoCggIBAOwI3n+4UwJT
zc2gAvfGaettfcauDicZTk20tT+A9yRBWjjehugyNBI4xqEuAqQ83iTd58YDeNMJ
O5pg7zFOYhStyscCPDO+RdyWhqH1/BehdJRuXTegOkuak3PVj1kD6bZYGfCX4xEi
3ypkzz+rl/9NFzQIhlJuG4pCczc1hBr9BK5o3rhFIStWM/gzqiFQRGzw+39/cAu/
OH7JIlLT3/GvNmNNlBcAHpUo0BOXleY+i1khZP0NfrdKr6/DbOSglKYlcUWprgc5
qLhlyznEN0hHIWTXEUBz6goEx+/D/REQHWkqli9fCAw4KQ/HZ6a6cx9xoQskjshg
1mOPWTqLvDaGHInhfAiFkBKkMRlZqctXzYSKQSD5WaQtAB+XfgjiaGmAg7J/Ev6X
nISVqqDsPJiL/0V+NfX8ZrK+3Lb/MfossvSdlg6qXUIQ4hayFtlNMehzZ6jZJV+d
uoTRKtR/n6P/n0+TQc7RVyoEpUbkW7yusAJ234krKiakm0BurOZ9/jKdAaTVO7+p
Jzc6YOfDo0swHXfwxS/Jlj8RBZs9+2dGYea/IoLMvpaMONSD4uEbQvjnV7sUZYPC
jjQI35WD/K2acQFBHk4NnwRsgEQ8K6fqlw9mJUN1st9KKlltro77fEJg4lP0XJZu
BBGStv7AwdHJLlPi2GkPB7G9XYCUD6Z/AgMBAAGjYzBhMA4GA1UdDwEB/wQEAwIB
BjAPBgNVHRMBAf8EBTADAQH/MB0GA1UdDgQWBBQQ7VHIaJD5K+NLygfZtrdw3btf
EjAfBgNVHSMEGDAWgBQQ7VHIaJD5K+NLygfZtrdw3btfEjANBgkqhkiG9w0BAQ0F
AAOCAgEAyYvBrkcN8iFnmfaKw9XA2RM2KmVJEJ6r4fC15Q4rTceW9CCGTQWVrBpo
fKsxA0cldJP/6xG27aXTUvw7k5H8KkSgRQr+EYalFYig4A0rwpQ7TBEUfTU0tc7c
VXKm7ZIlkDmu/B09Vd+WHmycgO7y7L1KBNCrzHqfjXD93nR3sdUcyNE3tY9PTqTA
6X0D82HT1NpIXIHmRCBftz0+zNs2cX34F9s4rlEEJCIxtP8SA1FkjPSO5iOqmagt
m5Qfnk9Nady/qJDQdzKguUxLDFlGbN8qThvy6VK9QQMuwKP2LevUAd3svlORq+Uq
h59dZ59qbWlNKdo2sPcnTFKILiLGUQgrmT8fpP0GXVw+HDRRLEI9bWGdR2dbZez1
MbSG0VjqEi0NCCXFJh7UsTA+VAZs0+2W1qbE+IiMbWnEF+zGWRge+/llyJX8VJsC
AlIgnEfN/C9lWEXEwVn2bC+NND3+ujeWTJRgLbDbRcr3Xn6aWFX4Q81h5qQveejW
OFSnJL/VLyu5i5/XMmrKG0BjNlD5qt+sNo3kh6aDkqXE/6TZNI3C8anFJHFGu6yw
7zhosHoiS5jPk0AE0618FMRHVOWdCo7Bh70XcQ0FkT1JW6cQFV55TD3qQIUdb7Lx
BK24HPw/DEThVwrHk5is9awDg94yAcNw+OGsdSESHf10lWe3MsA=
-----END CERTIFICATE-----
