Certificate:
    Data:
        Version: 3 (0x2)
        Serial Number: 1 (0x1)
    Signature Algorithm: sha512WithRSAEncryption
        Issuer: DC=hf, O=Hackfest 2014, OU=Hackfest scoreboard root CA, CN=Hackfest scoreboard root CA
        Validity
            Not Before: Oct  4 20:05:01 2014 GMT
            Not After : Oct  3 20:05:01 2016 GMT
        Subject: DC=hf, O=Hackfest 2014, OU=Hackfest scoreboard root CA, CN=Hackfest scoreboard root CA
        Subject Public Key Info:
            Public Key Algorithm: rsaEncryption
                Public-Key: (4096 bit)
                Modulus:
                    00:e8:d6:63:98:e4:72:cd:3c:d1:d0:62:3b:df:db:
                    8b:01:b7:56:ba:95:b5:71:37:cf:52:dc:58:7f:95:
                    a3:35:6b:f6:74:e4:4a:51:6c:24:d1:d3:8f:3a:4e:
                    f8:16:4d:72:29:99:71:e8:a0:31:0d:75:b6:e0:af:
                    66:67:b8:aa:f3:ce:ee:97:b7:58:eb:5b:ac:98:45:
                    32:88:59:1d:6f:fa:ae:81:cd:d0:9d:47:f6:f1:68:
                    d8:c5:75:15:b1:d8:c8:23:f9:c1:80:20:9d:a6:bf:
                    99:ea:a0:87:f8:ec:e7:14:80:b0:ca:a5:b2:c9:bc:
                    89:37:33:57:40:66:17:e3:1c:79:e2:88:e3:12:8a:
                    0e:e6:af:70:cc:58:5c:ff:0a:7f:97:11:74:e6:73:
                    9c:b3:08:10:7f:72:14:e4:da:b7:27:9e:bd:88:44:
                    37:1e:6d:b7:6a:67:85:0a:c9:bd:56:14:bc:b9:b5:
                    77:46:ce:03:3d:c7:e9:55:ae:1d:34:66:6b:b2:77:
                    c9:14:5a:95:55:8f:a4:18:9e:7f:18:b9:1f:aa:76:
                    1c:f9:4e:5c:03:b5:8d:d7:8b:8f:85:11:37:53:10:
                    d8:f8:5c:a8:79:34:e0:e5:72:4a:1d:8c:98:32:5e:
                    13:f9:31:ea:0e:0d:46:fb:55:28:77:c4:56:98:35:
                    65:c2:dd:84:cb:38:0b:26:7f:bb:bf:5b:2c:90:25:
                    e3:f0:6e:13:f9:7b:a9:15:29:9e:ff:cc:27:07:a6:
                    4e:ae:c7:9e:65:5a:5a:23:8a:0f:22:c6:f3:f9:00:
                    46:1c:b0:ce:d5:bf:85:49:d0:40:6d:3f:4f:a7:21:
                    1d:1c:94:4b:cf:a9:72:f9:bc:fd:b2:ca:37:83:bf:
                    5d:e6:f0:b6:f7:cf:87:01:c6:57:c4:d9:bd:1f:f5:
                    6a:59:ad:bf:94:a2:a0:be:e7:0b:7f:98:83:81:1f:
                    ed:28:8a:e6:a3:d7:91:0c:41:19:ca:34:07:e4:c4:
                    92:17:6b:a0:bf:34:8b:42:39:65:6e:c8:df:43:57:
                    ec:f8:7d:6d:a8:49:10:da:a0:ab:77:47:02:d5:78:
                    15:73:34:f1:71:54:90:e5:0d:0f:e7:43:e6:4f:15:
                    89:c4:ba:66:74:4f:94:df:42:11:99:64:44:ea:4a:
                    27:4e:69:a0:79:c1:f3:77:c3:f4:de:04:72:fe:08:
                    56:3c:61:28:f8:08:f3:cc:f1:2c:eb:09:95:50:9e:
                    9a:af:e1:f5:53:17:5c:d0:9a:4b:c5:25:11:4a:9f:
                    04:ba:2d:b1:40:78:23:3c:4b:01:35:40:80:63:3a:
                    b9:6a:bb:f7:ba:38:f8:af:4f:01:12:fb:e5:20:c4:
                    84:72:09
                Exponent: 65537 (0x10001)
        X509v3 extensions:
            X509v3 Key Usage: critical
                Certificate Sign, CRL Sign
            X509v3 Basic Constraints: critical
                CA:TRUE
            X509v3 Subject Key Identifier: 
                36:00:4E:00:7F:AA:0E:17:89:5C:17:D7:50:86:8E:A4:01:EE:06:DB
            X509v3 Authority Key Identifier: 
                keyid:36:00:4E:00:7F:AA:0E:17:89:5C:17:D7:50:86:8E:A4:01:EE:06:DB

    Signature Algorithm: sha512WithRSAEncryption
         c6:da:8f:66:6c:84:75:7e:69:7c:1b:8c:c1:07:03:ec:14:98:
         8b:c2:a0:77:e8:96:ae:fa:37:1d:50:9e:7a:85:1e:f9:56:a5:
         7d:14:ed:90:53:68:8f:76:e3:73:33:38:25:fa:bc:67:c9:ca:
         83:1e:89:1d:51:40:13:bd:cf:69:19:cd:2a:a2:c0:70:e0:30:
         13:0e:e6:21:c1:b7:d7:46:39:ed:16:28:3d:fb:d0:c6:8e:fb:
         8d:01:9b:57:64:0d:2b:bd:da:cd:c9:25:4c:35:e6:05:86:83:
         62:6c:47:3f:64:14:20:a0:8d:b3:b8:d1:b6:56:eb:d2:55:cd:
         22:6e:2a:d0:d0:15:b7:f9:f0:9e:99:29:60:ef:94:29:ae:ba:
         45:c9:ee:3d:cf:2d:aa:1c:40:29:4d:60:c5:71:1d:b9:c7:de:
         39:74:c5:33:ca:a9:10:2a:90:41:79:56:ba:69:6c:11:49:19:
         55:7a:9d:6a:1a:d8:5d:63:4c:2d:29:83:7e:a1:a3:68:93:5b:
         f6:3e:5d:2f:20:11:8d:0e:e1:6e:e9:35:b6:dc:9d:b6:e6:18:
         8b:6c:7d:2b:66:da:b9:64:d1:66:1a:db:dc:40:13:76:f2:44:
         28:1c:cb:60:2b:87:5f:e2:96:d5:3f:a1:26:6b:57:5a:3e:0e:
         dc:6a:d4:37:77:f1:57:9e:e2:36:a6:be:48:5b:f3:1d:76:f0:
         32:b3:d1:dc:18:92:40:ef:c7:94:5c:a6:fb:e7:f4:1a:32:e1:
         ae:3f:83:71:4b:95:23:7c:14:1e:63:55:60:0f:f8:e3:12:a9:
         cb:1c:e9:90:c5:d1:20:e8:23:c8:54:5e:f3:15:a9:37:cc:0c:
         bf:79:98:e5:fc:f9:64:ef:6a:3c:87:76:9f:62:a6:1c:3d:8f:
         41:38:c0:22:0c:e7:0a:f4:d8:50:ac:44:9d:70:ce:0f:8e:9a:
         60:8d:9c:90:18:e0:fd:0d:5e:94:2b:1c:cf:19:3a:1d:58:15:
         43:29:8d:35:84:f0:2d:b1:9c:6e:5e:09:79:fe:72:06:2c:c8:
         b6:15:db:01:a0:71:f2:8e:5f:50:99:67:67:a8:64:76:c9:98:
         1b:28:a3:86:f7:fc:f0:a2:ed:f3:3f:83:66:c2:5d:22:af:f7:
         dc:49:5f:2f:74:ca:db:a5:2b:94:18:01:df:0d:f2:e0:6c:ba:
         4d:1a:fb:27:07:7f:0d:ec:ed:37:76:c6:eb:e8:72:e6:84:c2:
         d7:f7:8d:a2:f7:54:fa:97:1a:54:f6:e0:06:2c:65:c0:86:bf:
         64:c5:0c:24:89:e9:12:4e:5c:4e:c0:18:77:b8:80:1c:f6:76:
         53:16:71:f6:47:0c:ce:f2
-----BEGIN CERTIFICATE-----
MIIFzjCCA7agAwIBAgIBATANBgkqhkiG9w0BAQ0FADB4MRIwEAYKCZImiZPyLGQB
GRYCaGYxFjAUBgNVBAoMDUhhY2tmZXN0IDIwMTQxJDAiBgNVBAsMG0hhY2tmZXN0
IHNjb3JlYm9hcmQgcm9vdCBDQTEkMCIGA1UEAwwbSGFja2Zlc3Qgc2NvcmVib2Fy
ZCByb290IENBMB4XDTE0MTAwNDIwMDUwMVoXDTE2MTAwMzIwMDUwMVoweDESMBAG
CgmSJomT8ixkARkWAmhmMRYwFAYDVQQKDA1IYWNrZmVzdCAyMDE0MSQwIgYDVQQL
DBtIYWNrZmVzdCBzY29yZWJvYXJkIHJvb3QgQ0ExJDAiBgNVBAMMG0hhY2tmZXN0
IHNjb3JlYm9hcmQgcm9vdCBDQTCCAiIwDQYJKoZIhvcNAQEBBQADggIPADCCAgoC
ggIBAOjWY5jkcs080dBiO9/biwG3VrqVtXE3z1LcWH+VozVr9nTkSlFsJNHTjzpO
+BZNcimZceigMQ11tuCvZme4qvPO7pe3WOtbrJhFMohZHW/6roHN0J1H9vFo2MV1
FbHYyCP5wYAgnaa/meqgh/js5xSAsMqlssm8iTczV0BmF+MceeKI4xKKDuavcMxY
XP8Kf5cRdOZznLMIEH9yFOTatyeevYhENx5tt2pnhQrJvVYUvLm1d0bOAz3H6VWu
HTRma7J3yRRalVWPpBiefxi5H6p2HPlOXAO1jdeLj4URN1MQ2PhcqHk04OVySh2M
mDJeE/kx6g4NRvtVKHfEVpg1ZcLdhMs4CyZ/u79bLJAl4/BuE/l7qRUpnv/MJwem
Tq7HnmVaWiOKDyLG8/kARhywztW/hUnQQG0/T6chHRyUS8+pcvm8/bLKN4O/Xebw
tvfPhwHGV8TZvR/1almtv5SioL7nC3+Yg4Ef7SiK5qPXkQxBGco0B+TEkhdroL80
i0I5ZW7I30NX7Ph9bahJENqgq3dHAtV4FXM08XFUkOUND+dD5k8VicS6ZnRPlN9C
EZlkROpKJ05poHnB83fD9N4Ecv4IVjxhKPgI88zxLOsJlVCemq/h9VMXXNCaS8Ul
EUqfBLotsUB4IzxLATVAgGM6uWq797o4+K9PARL75SDEhHIJAgMBAAGjYzBhMA4G
A1UdDwEB/wQEAwIBBjAPBgNVHRMBAf8EBTADAQH/MB0GA1UdDgQWBBQ2AE4Af6oO
F4lcF9dQho6kAe4G2zAfBgNVHSMEGDAWgBQ2AE4Af6oOF4lcF9dQho6kAe4G2zAN
BgkqhkiG9w0BAQ0FAAOCAgEAxtqPZmyEdX5pfBuMwQcD7BSYi8Kgd+iWrvo3HVCe
eoUe+ValfRTtkFNoj3bjczM4Jfq8Z8nKgx6JHVFAE73PaRnNKqLAcOAwEw7mIcG3
10Y57RYoPfvQxo77jQGbV2QNK73azcklTDXmBYaDYmxHP2QUIKCNs7jRtlbr0lXN
Im4q0NAVt/nwnpkpYO+UKa66RcnuPc8tqhxAKU1gxXEducfeOXTFM8qpECqQQXlW
umlsEUkZVXqdahrYXWNMLSmDfqGjaJNb9j5dLyARjQ7hbuk1ttydtuYYi2x9K2ba
uWTRZhrb3EATdvJEKBzLYCuHX+KW1T+hJmtXWj4O3GrUN3fxV57iNqa+SFvzHXbw
MrPR3BiSQO/HlFym++f0GjLhrj+DcUuVI3wUHmNVYA/44xKpyxzpkMXRIOgjyFRe
8xWpN8wMv3mY5fz5ZO9qPId2n2KmHD2PQTjAIgznCvTYUKxEnXDOD46aYI2ckBjg
/Q1elCsczxk6HVgVQymNNYTwLbGcbl4Jef5yBizIthXbAaBx8o5fUJlnZ6hkdsmY
Gyijhvf88KLt8z+DZsJdIq/33ElfL3TK26UrlBgB3w3y4Gy6TRr7Jwd/DeztN3bG
6+hy5oTC1/eNovdU+pcaVPbgBixlwIa/ZMUMJInpEk5cTsAYd7iAHPZ2UxZx9kcM
zvI=
-----END CERTIFICATE-----
