Certificate:
    Data:
        Version: 3 (0x2)
        Serial Number: 33 (0x21)
    Signature Algorithm: sha512WithRSAEncryption
        Issuer: C=CA, ST=Qc, L=Quebec, O=My Org, OU=My Org Department, CN=My Org CA
        Validity
            Not Before: Dec 28 05:09:12 2014 GMT
            Not After : Dec 27 05:09:12 2024 GMT
        Subject: C=CA, ST=Qc, L=Quebec, O=My Org, OU=My Org Department, CN=db.hf
        Subject Public Key Info:
            Public Key Algorithm: rsaEncryption
                Public-Key: (4096 bit)
                Modulus:
                    00:c2:29:0a:1e:8b:fa:a0:a8:ee:17:c1:b2:6f:38:
                    14:fb:41:09:df:cf:12:7c:64:4a:fc:cb:4e:00:d4:
                    88:02:cc:a4:b2:1a:b1:d7:de:1f:ab:23:32:3e:17:
                    d4:c2:10:60:9c:9e:38:6d:17:f9:f7:e5:0c:1a:f1:
                    df:14:99:25:3d:cb:5e:97:14:c4:e9:23:64:e6:d6:
                    d2:c3:ee:b4:70:f1:30:f6:45:88:c3:52:79:97:95:
                    4b:06:10:86:52:9a:b1:57:3e:93:fc:66:10:18:d6:
                    83:54:7c:37:02:10:ce:99:62:36:94:6b:8e:a9:84:
                    29:d8:51:56:e7:25:91:9e:c3:71:8e:f2:16:b5:3e:
                    2a:de:30:08:ba:12:ca:0d:2c:31:8e:21:dc:a0:58:
                    a3:51:94:29:46:c2:76:bc:60:c1:c8:20:1d:16:0c:
                    7d:9e:5b:56:0a:73:b9:e5:59:ba:0c:d1:3a:99:c1:
                    c3:08:fe:a7:01:fb:1a:a1:b2:39:74:f2:8a:31:bf:
                    b8:e0:39:67:77:b7:f0:49:ac:83:f6:f2:11:a9:90:
                    26:33:af:fb:24:e2:4e:62:3c:95:f0:29:1e:f7:7f:
                    12:b9:50:73:b9:b8:f1:7d:b5:4e:d0:bd:9c:e9:56:
                    ff:b0:15:ae:c6:e7:f0:e6:f9:5c:01:e9:2f:69:e1:
                    b4:ce:c9:6f:80:bf:c3:c8:25:c1:fc:e5:ea:34:f5:
                    0a:39:e5:d8:87:fd:1c:c6:02:f3:ac:91:f7:71:eb:
                    cf:99:66:48:3c:8a:b0:9c:4d:3d:1e:7f:ea:3a:eb:
                    25:4c:b2:8c:f4:4b:86:2a:33:a1:56:4f:b7:b1:51:
                    c8:d4:0f:09:52:e0:6e:ba:bf:2e:a8:f0:f4:c9:96:
                    fb:76:f2:c1:ca:db:54:0b:c1:cd:a0:57:a3:34:88:
                    97:1d:b3:ee:ae:dc:53:f0:0e:4b:1d:38:8c:b3:15:
                    47:37:44:a6:fd:30:91:c3:7c:54:63:c9:dd:b0:09:
                    86:0e:62:71:56:c0:17:e4:80:2e:d2:bd:9f:4f:94:
                    30:2d:37:09:5c:ed:c7:89:e3:54:3a:26:5d:3b:e2:
                    31:ed:d1:97:80:88:27:c5:9b:95:81:31:af:f2:eb:
                    ec:04:e1:5c:66:2e:6f:46:c4:e9:2a:f1:58:57:8e:
                    5e:91:47:bf:c0:fc:e4:32:df:59:41:c2:72:c7:f0:
                    e2:c5:6c:48:01:c5:98:66:7f:91:f0:c5:54:5d:dd:
                    5b:63:47:b8:c2:38:bc:8c:d5:06:6c:e5:d4:37:98:
                    01:4a:d7:7c:b8:83:28:c1:0e:7a:67:5a:34:d0:45:
                    00:24:37:38:7a:e2:d9:9e:5e:13:83:93:a9:e9:84:
                    0a:49:5f
                Exponent: 65537 (0x10001)
        X509v3 extensions:
            X509v3 Key Usage: critical
                Digital Signature, Key Encipherment
            X509v3 Basic Constraints: critical
                CA:FALSE
            X509v3 Extended Key Usage: 
                TLS Web Server Authentication
            X509v3 Subject Key Identifier: 
                06:A8:A5:4D:FD:FC:C4:07:71:1E:1D:0D:24:5D:FD:18:D7:94:74:89
    Signature Algorithm: sha512WithRSAEncryption
         bd:9a:e0:1a:f5:42:24:85:ca:42:b2:6d:4c:95:b9:5f:df:04:
         df:44:a9:06:3c:19:64:3a:cc:ee:b1:e6:ca:8a:03:7e:a3:0b:
         b6:7c:e1:d9:86:c6:69:4b:0f:f1:96:2d:67:13:25:53:00:e0:
         d0:96:2e:93:58:2a:17:ef:27:2b:ed:b9:a3:b0:ef:6f:7f:13:
         0f:22:d1:ae:fb:ca:8d:65:a2:6f:a7:b0:99:8c:d9:0a:5f:02:
         c4:c4:d0:0e:a4:ab:6c:fc:10:c8:3f:2f:89:b4:0d:5d:44:83:
         58:ea:29:4a:fe:bb:87:00:f0:92:e5:87:be:91:4c:f0:ca:d2:
         ab:15:d3:21:6c:f7:d8:8b:00:12:a5:ca:0c:b8:1b:2e:a3:e5:
         be:8a:d4:7d:b7:95:fe:24:67:b4:61:96:1c:77:ad:ca:08:9e:
         d6:ef:8f:47:64:14:b7:2f:7d:37:57:75:00:3a:6c:23:1f:51:
         83:aa:8a:de:89:4e:d5:c4:b8:96:d6:7f:a3:79:9d:47:5d:01:
         7f:95:1f:d3:81:4c:56:ea:ad:31:5f:f4:c0:83:9c:ed:7a:e1:
         ab:4a:2e:40:30:80:d8:28:90:70:1b:53:b9:0d:10:5d:5f:37:
         3c:e2:4c:3c:92:d2:b1:d5:96:9b:40:a3:4f:20:d5:2b:18:27:
         a5:36:e9:c3:8a:07:6f:3d:39:43:a5:70:cc:b9:1d:cb:b8:53:
         4d:4d:af:65:4b:fc:0f:b6:e0:cc:45:c5:a3:0b:1c:12:93:31:
         92:64:86:96:ae:86:32:93:f0:4a:d3:9a:88:f0:5c:f7:95:2a:
         0f:7e:ff:99:09:d5:66:af:b7:68:df:68:26:2e:e9:d3:4b:08:
         4e:5a:ae:d9:83:13:78:88:0b:09:2d:b3:91:c0:b4:81:ff:5b:
         b6:74:32:77:f6:f7:54:c8:17:6e:fa:b2:35:f9:1b:f9:12:39:
         81:28:c4:c1:b4:c4:96:47:2c:40:78:8e:44:05:b5:ba:17:66:
         4d:ac:aa:9a:8b:95:d7:ad:0f:9a:86:35:2b:79:bb:b7:53:4a:
         a8:09:fd:58:27:33:c4:01:e8:08:56:cf:26:15:10:23:a0:6e:
         3c:17:95:89:15:be:51:a4:e5:73:02:aa:c7:1b:32:85:3b:d1:
         1c:a7:2b:e2:6c:94:e9:7d:36:40:05:9e:dc:ac:ce:9a:69:44:
         b0:e2:ef:c6:7f:02:a0:2f:0a:db:48:37:74:43:01:aa:ea:19:
         c8:86:b1:12:00:9d:57:21:0c:47:ca:55:34:de:97:8c:8d:8f:
         f4:12:2b:1a:56:28:ba:4b:72:53:be:ec:03:91:34:a4:46:58:
         1e:10:56:ab:1f:fc:b4:0c
-----BEGIN CERTIFICATE-----
MIIFozCCA4ugAwIBAgIBITANBgkqhkiG9w0BAQ0FADBsMQswCQYDVQQGEwJDQTEL
MAkGA1UECAwCUWMxDzANBgNVBAcMBlF1ZWJlYzEPMA0GA1UECgwGTXkgT3JnMRow
GAYDVQQLDBFNeSBPcmcgRGVwYXJ0bWVudDESMBAGA1UEAwwJTXkgT3JnIENBMB4X
DTE0MTIyODA1MDkxMloXDTI0MTIyNzA1MDkxMlowaDELMAkGA1UEBhMCQ0ExCzAJ
BgNVBAgMAlFjMQ8wDQYDVQQHDAZRdWViZWMxDzANBgNVBAoMBk15IE9yZzEaMBgG
A1UECwwRTXkgT3JnIERlcGFydG1lbnQxDjAMBgNVBAMMBWRiLmhmMIICIjANBgkq
hkiG9w0BAQEFAAOCAg8AMIICCgKCAgEAwikKHov6oKjuF8GybzgU+0EJ388SfGRK
/MtOANSIAsykshqx194fqyMyPhfUwhBgnJ44bRf59+UMGvHfFJklPctelxTE6SNk
5tbSw+60cPEw9kWIw1J5l5VLBhCGUpqxVz6T/GYQGNaDVHw3AhDOmWI2lGuOqYQp
2FFW5yWRnsNxjvIWtT4q3jAIuhLKDSwxjiHcoFijUZQpRsJ2vGDByCAdFgx9nltW
CnO55Vm6DNE6mcHDCP6nAfsaobI5dPKKMb+44Dlnd7fwSayD9vIRqZAmM6/7JOJO
YjyV8Cke938SuVBzubjxfbVO0L2c6Vb/sBWuxufw5vlcAekvaeG0zslvgL/DyCXB
/OXqNPUKOeXYh/0cxgLzrJH3cevPmWZIPIqwnE09Hn/qOuslTLKM9EuGKjOhVk+3
sVHI1A8JUuBuur8uqPD0yZb7dvLByttUC8HNoFejNIiXHbPurtxT8A5LHTiMsxVH
N0Sm/TCRw3xUY8ndsAmGDmJxVsAX5IAu0r2fT5QwLTcJXO3HieNUOiZdO+Ix7dGX
gIgnxZuVgTGv8uvsBOFcZi5vRsTpKvFYV45ekUe/wPzkMt9ZQcJyx/DixWxIAcWY
Zn+R8MVUXd1bY0e4wji8jNUGbOXUN5gBStd8uIMowQ56Z1o00EUAJDc4euLZnl4T
g5Op6YQKSV8CAwEAAaNUMFIwDgYDVR0PAQH/BAQDAgWgMAwGA1UdEwEB/wQCMAAw
EwYDVR0lBAwwCgYIKwYBBQUHAwEwHQYDVR0OBBYEFAaopU39/MQHcR4dDSRd/RjX
lHSJMA0GCSqGSIb3DQEBDQUAA4ICAQC9muAa9UIkhcpCsm1Mlblf3wTfRKkGPBlk
OszusebKigN+owu2fOHZhsZpSw/xli1nEyVTAODQli6TWCoX7ycr7bmjsO9vfxMP
ItGu+8qNZaJvp7CZjNkKXwLExNAOpKts/BDIPy+JtA1dRINY6ilK/ruHAPCS5Ye+
kUzwytKrFdMhbPfYiwASpcoMuBsuo+W+itR9t5X+JGe0YZYcd63KCJ7W749HZBS3
L303V3UAOmwjH1GDqoreiU7VxLiW1n+jeZ1HXQF/lR/TgUxW6q0xX/TAg5zteuGr
Si5AMIDYKJBwG1O5DRBdXzc84kw8ktKx1ZabQKNPINUrGCelNunDigdvPTlDpXDM
uR3LuFNNTa9lS/wPtuDMRcWjCxwSkzGSZIaWroYyk/BK05qI8Fz3lSoPfv+ZCdVm
r7do32gmLunTSwhOWq7ZgxN4iAsJLbORwLSB/1u2dDJ39vdUyBdu+rI1+Rv5EjmB
KMTBtMSWRyxAeI5EBbW6F2ZNrKqai5XXrQ+ahjUrebu3U0qoCf1YJzPEAegIVs8m
FRAjoG48F5WJFb5RpOVzAqrHGzKFO9EcpyvibJTpfTZABZ7crM6aaUSw4u/GfwKg
LwrbSDd0QwGq6hnIhrESAJ1XIQxHylU03peMjY/0EisaVii6S3JTvuwDkTSkRlge
EFarH/y0DA==
-----END CERTIFICATE-----
