Certificate:
    Data:
        Version: 3 (0x2)
        Serial Number: 3 (0x3)
    Signature Algorithm: sha512WithRSAEncryption
        Issuer: DC=hf, O=Hackfest Communication, OU=Hackfest CA, CN=Hackfest CA
        Validity
            Not Before: Oct 18 20:55:58 2014 GMT
            Not After : Oct 17 20:55:58 2016 GMT
        Subject: DC=hf, O=Hackfest Communication, OU=Hackfest Games, CN=scoreboard.hf
        Subject Public Key Info:
            Public Key Algorithm: rsaEncryption
                Public-Key: (4096 bit)
                Modulus:
                    00:eb:a6:2a:5c:6e:d6:a5:36:8e:d4:98:4b:d5:d4:
                    7c:96:c5:5d:6d:a5:52:8e:12:43:5a:77:37:8d:47:
                    b2:35:50:f9:77:47:14:9e:b3:ef:9d:f4:63:e0:85:
                    24:af:75:2e:a4:95:b0:4c:bc:79:44:c5:9c:a9:76:
                    5f:bc:16:54:5a:55:8d:b8:3a:93:cf:d4:6a:f7:77:
                    9b:92:7a:a4:bc:b2:cc:f0:5d:90:a8:2e:4a:09:48:
                    5f:f6:1d:a1:b8:f8:fe:7a:fc:00:81:35:f2:98:34:
                    a6:86:47:e4:ad:f6:0a:f9:6e:28:14:60:8a:af:f2:
                    df:2a:6e:67:4a:38:de:54:85:38:64:da:38:25:d1:
                    d6:07:b8:39:3c:81:41:07:aa:20:c6:91:cf:09:91:
                    f5:fc:29:5e:30:1b:f8:d8:46:be:44:14:1d:41:e1:
                    57:18:56:da:7b:3b:ac:c0:bd:bc:58:d3:a7:69:87:
                    44:2f:03:69:50:a2:90:5f:7c:80:da:62:54:0c:45:
                    5c:8a:03:27:fb:be:ac:9b:b0:fe:34:6f:72:89:ca:
                    ba:60:34:10:07:b6:08:df:db:07:55:c4:8c:1a:61:
                    35:57:b6:49:85:36:1c:fc:34:a7:7d:53:8a:d6:5a:
                    43:1c:a0:80:65:60:0b:77:b5:71:6a:e2:19:a0:ac:
                    fb:70:4a:28:4a:5b:d2:3f:29:79:de:17:0d:45:51:
                    73:2a:63:97:9e:e9:27:bb:85:e5:d5:98:45:7c:09:
                    89:ac:2c:f8:57:41:14:bb:b8:b4:9b:ae:b6:5c:f3:
                    5f:c1:6d:b0:50:1b:2a:e6:bd:9e:95:4f:4f:fc:49:
                    8f:ac:22:c7:3c:fa:86:79:14:0e:bf:b2:d8:7f:03:
                    b9:dd:8c:dc:04:cd:41:7c:90:0f:4c:e0:d7:44:c1:
                    4a:c6:ba:ab:36:f0:ae:31:d3:7b:4b:a9:94:38:89:
                    a2:12:47:9b:c0:1a:47:4c:f7:68:9e:4f:7e:b1:bf:
                    27:3e:49:53:be:e7:ec:34:7f:f4:0a:ff:4d:63:0d:
                    81:8b:2d:90:bd:96:97:32:9a:d9:51:8a:05:b2:65:
                    b0:88:e2:03:f1:96:bd:b2:e8:3a:e8:d5:3a:38:f5:
                    bd:1a:0e:2c:f0:47:9e:7a:20:ec:ff:02:33:77:8c:
                    6a:25:0e:90:96:98:59:bd:d0:7f:9e:15:90:92:40:
                    16:e4:45:d6:d0:10:0f:98:72:d2:2c:08:e0:60:ec:
                    d8:6c:6c:68:ad:ee:c7:60:fe:c2:68:25:31:70:90:
                    5c:e1:41:81:27:e8:a0:a9:47:09:cf:1a:d5:35:00:
                    c0:7c:1f:7c:7a:ed:f3:2a:3d:75:a9:83:74:35:10:
                    2e:8b:eb
                Exponent: 65537 (0x10001)
        X509v3 extensions:
            X509v3 Key Usage: critical
                Digital Signature, Key Encipherment
            X509v3 Basic Constraints: 
                CA:FALSE
            X509v3 Extended Key Usage: 
                TLS Web Server Authentication, TLS Web Client Authentication
            X509v3 Subject Key Identifier: 
                8D:35:C2:12:CE:0A:56:AC:4B:A1:BC:08:3B:D7:72:E9:1E:6F:D6:49
            X509v3 Authority Key Identifier: 
                keyid:48:E2:02:16:6D:FA:2F:B6:21:7A:56:3F:F1:86:56:DD:1E:97:FE:72

    Signature Algorithm: sha512WithRSAEncryption
         a1:b9:fb:8c:5d:14:ea:71:97:ce:b5:c7:83:db:11:31:14:dc:
         f1:7b:f5:71:cf:5e:a3:9f:82:82:9d:4a:24:76:d1:9e:6f:ad:
         fa:ad:5c:a0:47:85:e4:1b:0a:4c:d5:e4:df:7d:ca:cd:0e:2f:
         16:76:e6:28:be:08:cf:ad:db:e3:61:29:37:b5:d1:22:39:fb:
         b6:ff:06:62:72:bd:25:05:20:2c:8d:72:09:73:3a:4d:c4:9f:
         7c:a9:a2:c6:56:24:98:1d:44:6c:ac:18:e4:c8:3c:e2:91:e2:
         0d:b3:fd:dc:79:53:c6:eb:2b:6d:b1:9d:cb:e9:ec:cb:d0:57:
         ac:34:61:60:67:ea:20:a8:0d:bc:0d:f2:ea:55:73:89:36:34:
         c3:38:57:5e:db:da:a6:94:0d:6f:e4:6f:39:82:4a:ac:66:e6:
         a2:7d:56:4a:d8:59:ba:69:90:bb:e4:32:4e:41:36:f0:71:70:
         fe:dd:b5:a2:15:f2:ca:23:5c:69:fa:48:68:7b:0f:c7:40:fd:
         bf:1e:5a:cf:08:40:a1:f3:08:c6:a8:6c:b2:58:10:94:a8:ee:
         3f:46:e1:25:33:e8:e3:98:0e:91:95:1b:1f:f6:ca:0d:ca:42:
         01:1d:dd:89:56:8f:b0:7d:ae:8c:73:12:45:fb:48:92:6e:0f:
         71:8a:9a:d3:69:23:97:e2:ec:c6:a0:0a:4f:06:04:76:4f:f0:
         40:af:7a:49:13:05:e4:9b:f6:26:ac:01:db:56:fb:98:a8:a7:
         e0:20:b0:17:49:b9:12:e2:fb:2e:e0:eb:3a:38:c0:aa:cc:49:
         d1:95:f2:94:76:6b:92:3e:73:5c:89:ce:62:0f:c0:8a:fa:0e:
         13:46:cd:7d:11:81:74:b8:82:2e:da:e5:a8:1c:e5:20:57:9c:
         72:cc:6d:f1:bf:1a:fc:8a:3f:22:97:dd:83:8e:01:d1:de:4a:
         04:12:01:fd:95:e9:dd:46:73:49:d9:42:c3:0c:59:16:c9:d3:
         a5:2c:fb:25:bd:85:39:4c:3b:80:6d:33:55:c8:9a:73:a1:e2:
         bd:7e:a6:da:c6:83:d1:64:ae:79:12:e8:dd:7c:bb:03:c4:80:
         40:a1:92:7f:66:21:d3:88:05:20:a4:52:46:46:ed:c7:d7:e6:
         b0:92:d5:77:94:12:5c:f2:e6:f4:cc:04:61:02:d9:8d:e7:00:
         ad:77:16:e7:39:33:6c:6e:8d:04:d1:f0:5d:9d:4d:ff:51:ef:
         d7:93:7a:3f:ad:69:d2:9a:1c:19:0b:32:f5:db:91:3f:d9:b5:
         04:90:e7:73:50:65:01:7d:4d:27:fe:f8:fc:61:cd:ea:95:76:
         13:74:7e:82:54:06:17:ce
-----BEGIN CERTIFICATE-----
MIIFvjCCA6agAwIBAgIBAzANBgkqhkiG9w0BAQ0FADBhMRIwEAYKCZImiZPyLGQB
GRYCaGYxHzAdBgNVBAoMFkhhY2tmZXN0IENvbW11bmljYXRpb24xFDASBgNVBAsM
C0hhY2tmZXN0IENBMRQwEgYDVQQDDAtIYWNrZmVzdCBDQTAeFw0xNDEwMTgyMDU1
NThaFw0xNjEwMTcyMDU1NThaMGYxEjAQBgoJkiaJk/IsZAEZFgJoZjEfMB0GA1UE
CgwWSGFja2Zlc3QgQ29tbXVuaWNhdGlvbjEXMBUGA1UECwwOSGFja2Zlc3QgR2Ft
ZXMxFjAUBgNVBAMMDXNjb3JlYm9hcmQuaGYwggIiMA0GCSqGSIb3DQEBAQUAA4IC
DwAwggIKAoICAQDrpipcbtalNo7UmEvV1HyWxV1tpVKOEkNadzeNR7I1UPl3RxSe
s++d9GPghSSvdS6klbBMvHlExZypdl+8FlRaVY24OpPP1Gr3d5uSeqS8sszwXZCo
LkoJSF/2HaG4+P56/ACBNfKYNKaGR+St9gr5bigUYIqv8t8qbmdKON5UhThk2jgl
0dYHuDk8gUEHqiDGkc8JkfX8KV4wG/jYRr5EFB1B4VcYVtp7O6zAvbxY06dph0Qv
A2lQopBffIDaYlQMRVyKAyf7vqybsP40b3KJyrpgNBAHtgjf2wdVxIwaYTVXtkmF
Nhz8NKd9U4rWWkMcoIBlYAt3tXFq4hmgrPtwSihKW9I/KXneFw1FUXMqY5ee6Se7
heXVmEV8CYmsLPhXQRS7uLSbrrZc81/BbbBQGyrmvZ6VT0/8SY+sIsc8+oZ5FA6/
sth/A7ndjNwEzUF8kA9M4NdEwUrGuqs28K4x03tLqZQ4iaISR5vAGkdM92ieT36x
vyc+SVO+5+w0f/QK/01jDYGLLZC9lpcymtlRigWyZbCI4gPxlr2y6Dro1To49b0a
DizwR556IOz/AjN3jGolDpCWmFm90H+eFZCSQBbkRdbQEA+YctIsCOBg7NhsbGit
7sdg/sJoJTFwkFzhQYEn6KCpRwnPGtU1AMB8H3x67fMqPXWpg3Q1EC6L6wIDAQAB
o3wwejAOBgNVHQ8BAf8EBAMCBaAwCQYDVR0TBAIwADAdBgNVHSUEFjAUBggrBgEF
BQcDAQYIKwYBBQUHAwIwHQYDVR0OBBYEFI01whLOClasS6G8CDvXcukeb9ZJMB8G
A1UdIwQYMBaAFEjiAhZt+i+2IXpWP/GGVt0el/5yMA0GCSqGSIb3DQEBDQUAA4IC
AQChufuMXRTqcZfOtceD2xExFNzxe/Vxz16jn4KCnUokdtGeb636rVygR4XkGwpM
1eTffcrNDi8WduYovgjPrdvjYSk3tdEiOfu2/wZicr0lBSAsjXIJczpNxJ98qaLG
ViSYHURsrBjkyDzikeINs/3ceVPG6yttsZ3L6ezL0FesNGFgZ+ogqA28DfLqVXOJ
NjTDOFde29qmlA1v5G85gkqsZuaifVZK2Fm6aZC75DJOQTbwcXD+3bWiFfLKI1xp
+khoew/HQP2/HlrPCECh8wjGqGyyWBCUqO4/RuElM+jjmA6RlRsf9soNykIBHd2J
Vo+wfa6McxJF+0iSbg9xiprTaSOX4uzGoApPBgR2T/BAr3pJEwXkm/YmrAHbVvuY
qKfgILAXSbkS4vsu4Os6OMCqzEnRlfKUdmuSPnNcic5iD8CK+g4TRs19EYF0uIIu
2uWoHOUgV5xyzG3xvxr8ij8il92DjgHR3koEEgH9lendRnNJ2ULDDFkWydOlLPsl
vYU5TDuAbTNVyJpzoeK9fqbaxoPRZK55EujdfLsDxIBAoZJ/ZiHTiAUgpFJGRu3H
1+awktV3lBJc8ub0zARhAtmN5wCtdxbnOTNsbo0E0fBdnU3/Ue/Xk3o/rWnSmhwZ
CzL125E/2bUEkOdzUGUBfU0n/vj8Yc3qlXYTdH6CVAYXzg==
-----END CERTIFICATE-----
