Certificate:
    Data:
        Version: 3 (0x2)
        Serial Number: 33 (0x21)
    Signature Algorithm: sha512WithRSAEncryption
        Issuer: C=CA, ST=Qc, L=Quebec, O=My Org, OU=My Org Department, CN=My Org CA
        Validity
            Not Before: Dec 28 04:26:26 2014 GMT
            Not After : Dec 27 04:26:26 2024 GMT
        Subject: C=CA, ST=Qc, L=Quebec, O=My Org, OU=My Org Department, CN=db.hf
        Subject Public Key Info:
            Public Key Algorithm: rsaEncryption
                Public-Key: (4096 bit)
                Modulus:
                    00:f3:5f:64:e6:73:9e:9b:36:23:3a:a5:45:25:b5:
                    a4:42:05:4a:20:f8:45:62:a4:e9:64:38:e7:c2:70:
                    82:b9:56:06:b4:e9:f1:d3:e9:32:9a:ea:9f:57:88:
                    19:5e:23:cd:4e:1a:4f:51:0c:ab:42:b9:e2:cd:7c:
                    8f:0f:09:e4:12:7a:34:a5:08:0d:9e:e2:65:cd:b4:
                    6b:47:06:96:24:c3:03:b7:91:39:3e:0a:df:11:86:
                    08:91:00:95:4c:89:98:f5:18:fb:f7:45:49:6b:ca:
                    44:26:7d:d7:d1:1f:49:38:c8:c5:57:69:76:e4:13:
                    28:75:64:6d:fc:3e:56:9f:88:7c:56:3a:43:3a:cc:
                    8e:56:53:25:30:78:ea:00:99:ff:0d:b6:8a:04:cf:
                    55:a4:a5:62:8f:b7:ab:61:3e:80:a9:70:c6:2f:b9:
                    2a:f9:02:16:59:77:59:3d:71:ce:2f:ea:ba:f5:89:
                    90:e8:94:e4:29:3f:22:ab:41:73:c4:6f:a0:6a:d1:
                    66:05:6f:10:93:a8:7a:d8:f2:d2:b6:93:cd:85:89:
                    30:79:e4:0b:b0:30:9d:8d:3d:ff:7a:65:39:8c:6d:
                    5f:0d:da:89:d0:fe:f7:74:0a:7e:fd:b7:21:be:89:
                    15:37:81:15:21:27:2a:12:4a:ea:68:28:4d:e5:90:
                    26:16:f7:d3:5f:b2:11:b5:46:51:aa:ce:a3:76:fd:
                    4d:5f:72:d3:0e:d9:35:fa:24:70:64:3f:4c:65:a6:
                    9c:c9:8f:c9:e9:b0:da:b8:9a:c0:8a:ec:54:9f:a6:
                    ab:82:39:e6:43:35:3c:99:b3:60:e1:4e:8a:32:37:
                    6c:8d:87:e5:41:6f:81:5d:fa:c9:61:03:a1:cd:0a:
                    c5:d0:9a:b0:5e:68:db:36:31:90:c6:5d:e2:c2:77:
                    75:39:27:9d:ad:89:02:25:08:34:a9:43:37:f7:de:
                    0a:31:3e:3b:c3:18:b0:b7:a4:69:65:83:5a:f3:d5:
                    d3:3f:e4:dc:18:df:23:e3:73:c3:da:77:a2:72:81:
                    a2:62:63:a5:42:67:f5:e5:f7:ce:31:0c:0a:50:20:
                    a6:5e:44:30:7e:21:c3:0c:94:8c:33:79:5d:04:42:
                    bf:c6:36:0a:14:49:b0:f8:43:90:42:41:a0:3d:15:
                    70:a1:dd:5d:b0:89:c9:3c:a2:68:03:c5:4c:c8:d0:
                    2a:c7:7c:3a:c6:47:04:03:c2:d8:a6:b3:1a:bd:fc:
                    ff:1f:cb:87:30:1d:e2:a9:da:82:44:5e:14:a5:b0:
                    ae:e9:ed:4f:82:31:9d:64:4d:96:e3:ae:9f:02:b4:
                    85:6e:2a:7e:17:ea:cb:ff:d2:90:d2:06:5b:04:bf:
                    80:e6:99
                Exponent: 65537 (0x10001)
        X509v3 extensions:
            X509v3 Key Usage: critical
                Digital Signature, Key Encipherment
            X509v3 Basic Constraints: critical
                CA:FALSE
            X509v3 Extended Key Usage: 
                TLS Web Server Authentication
            X509v3 Subject Key Identifier: 
                9B:28:02:70:18:10:1C:4E:03:00:13:EA:57:61:EA:84:88:D2:7E:D5
    Signature Algorithm: sha512WithRSAEncryption
         87:52:20:f0:f1:d2:a1:bf:ec:1a:a5:2e:d7:ec:43:2a:6d:17:
         b9:5f:71:1e:da:c4:46:a2:f9:e4:1b:f4:3d:af:22:e5:6b:15:
         47:a5:ac:93:a1:bc:88:6c:1e:c2:0b:7b:5d:20:00:f1:d9:75:
         0d:5b:8e:0b:d6:ad:18:00:21:b7:05:f7:74:a3:d5:eb:7d:70:
         a7:c3:52:50:db:ca:fb:3c:28:22:b7:1f:36:02:17:f4:df:a5:
         cf:5f:5f:4f:bf:03:e3:74:d6:b0:0b:ad:8c:d0:02:ef:70:a8:
         c7:19:68:b9:35:f7:1c:76:09:5c:0c:8a:73:ef:04:51:82:02:
         92:29:c4:4d:d3:54:c2:98:3e:bc:e9:09:fa:f0:68:18:b8:df:
         04:6d:82:f3:12:fe:f3:3f:a2:6e:b6:ba:5a:a2:17:3e:84:a8:
         d5:c4:24:b9:7b:d7:9a:7d:8d:3e:6a:bd:a6:15:12:79:b3:1a:
         69:48:95:35:a5:77:99:8b:ee:af:ec:73:e8:91:d7:a4:a7:64:
         92:e1:87:20:87:9f:c3:97:66:71:b1:18:e3:69:35:4f:a9:1c:
         71:a9:97:36:20:89:e7:25:e7:fe:8a:c7:ca:35:a5:84:9f:35:
         0b:b4:67:05:d9:1c:50:76:ac:bf:4e:54:67:07:69:f0:51:95:
         3c:6b:28:31:92:3a:ff:3c:84:a0:44:5a:f5:81:7d:47:a0:88:
         b1:ec:7d:22:b6:9a:8f:33:49:eb:37:21:44:0f:bd:1e:3c:a7:
         35:1d:79:7f:ac:21:f0:fb:0c:f1:b0:c2:50:2a:33:0b:c8:26:
         ab:5b:99:15:85:8e:33:99:9c:d9:c0:96:4e:8d:c1:21:b9:8c:
         89:19:1f:85:8f:0e:92:5e:2c:93:e1:f9:54:89:69:ab:e9:f8:
         a6:e6:1f:de:64:d5:25:73:dc:36:03:70:88:bc:ed:c0:d7:b3:
         5f:07:6c:7f:6b:73:0b:c8:57:bc:83:24:3f:7c:58:d6:5e:d2:
         05:44:2d:6a:f4:85:13:ae:b2:23:b0:c0:4e:b1:ea:3b:94:f4:
         df:d3:26:1c:d8:5b:08:a3:0d:b8:b4:db:b9:41:07:f4:c3:82:
         cc:8a:b1:18:71:15:e8:63:60:6f:46:e3:c1:ff:1c:2c:a9:d9:
         96:aa:f0:c6:e3:ac:34:6f:14:34:1e:96:a7:dc:90:ce:c1:10:
         2d:a1:10:62:24:86:83:c7:77:61:75:31:5a:d6:67:45:d8:81:
         74:a1:9f:3e:94:e3:bb:0f:24:32:6c:b3:36:b1:4d:39:16:1a:
         dd:b8:ad:76:f2:8d:d0:37:2b:a3:a5:56:d6:01:0b:6a:3c:e7:
         50:cd:43:e2:85:c1:41:fa
-----BEGIN CERTIFICATE-----
MIIFozCCA4ugAwIBAgIBITANBgkqhkiG9w0BAQ0FADBsMQswCQYDVQQGEwJDQTEL
MAkGA1UECAwCUWMxDzANBgNVBAcMBlF1ZWJlYzEPMA0GA1UECgwGTXkgT3JnMRow
GAYDVQQLDBFNeSBPcmcgRGVwYXJ0bWVudDESMBAGA1UEAwwJTXkgT3JnIENBMB4X
DTE0MTIyODA0MjYyNloXDTI0MTIyNzA0MjYyNlowaDELMAkGA1UEBhMCQ0ExCzAJ
BgNVBAgMAlFjMQ8wDQYDVQQHDAZRdWViZWMxDzANBgNVBAoMBk15IE9yZzEaMBgG
A1UECwwRTXkgT3JnIERlcGFydG1lbnQxDjAMBgNVBAMMBWRiLmhmMIICIjANBgkq
hkiG9w0BAQEFAAOCAg8AMIICCgKCAgEA819k5nOemzYjOqVFJbWkQgVKIPhFYqTp
ZDjnwnCCuVYGtOnx0+kymuqfV4gZXiPNThpPUQyrQrnizXyPDwnkEno0pQgNnuJl
zbRrRwaWJMMDt5E5PgrfEYYIkQCVTImY9Rj790VJa8pEJn3X0R9JOMjFV2l25BMo
dWRt/D5Wn4h8VjpDOsyOVlMlMHjqAJn/DbaKBM9VpKVij7erYT6AqXDGL7kq+QIW
WXdZPXHOL+q69YmQ6JTkKT8iq0FzxG+gatFmBW8Qk6h62PLStpPNhYkweeQLsDCd
jT3/emU5jG1fDdqJ0P73dAp+/bchvokVN4EVIScqEkrqaChN5ZAmFvfTX7IRtUZR
qs6jdv1NX3LTDtk1+iRwZD9MZaacyY/J6bDauJrAiuxUn6argjnmQzU8mbNg4U6K
MjdsjYflQW+BXfrJYQOhzQrF0JqwXmjbNjGQxl3iwnd1OSedrYkCJQg0qUM3994K
MT47wxiwt6RpZYNa89XTP+TcGN8j43PD2neicoGiYmOlQmf15ffOMQwKUCCmXkQw
fiHDDJSMM3ldBEK/xjYKFEmw+EOQQkGgPRVwod1dsInJPKJoA8VMyNAqx3w6xkcE
A8LYprMavfz/H8uHMB3iqdqCRF4UpbCu6e1PgjGdZE2W466fArSFbip+F+rL/9KQ
0gZbBL+A5pkCAwEAAaNUMFIwDgYDVR0PAQH/BAQDAgWgMAwGA1UdEwEB/wQCMAAw
EwYDVR0lBAwwCgYIKwYBBQUHAwEwHQYDVR0OBBYEFJsoAnAYEBxOAwAT6ldh6oSI
0n7VMA0GCSqGSIb3DQEBDQUAA4ICAQCHUiDw8dKhv+wapS7X7EMqbRe5X3Ee2sRG
ovnkG/Q9ryLlaxVHpayTobyIbB7CC3tdIADx2XUNW44L1q0YACG3Bfd0o9XrfXCn
w1JQ28r7PCgitx82Ahf036XPX19PvwPjdNawC62M0ALvcKjHGWi5NfccdglcDIpz
7wRRggKSKcRN01TCmD686Qn68GgYuN8EbYLzEv7zP6Jutrpaohc+hKjVxCS5e9ea
fY0+ar2mFRJ5sxppSJU1pXeZi+6v7HPokdekp2SS4Ycgh5/Dl2ZxsRjjaTVPqRxx
qZc2IInnJef+isfKNaWEnzULtGcF2RxQdqy/TlRnB2nwUZU8aygxkjr/PISgRFr1
gX1HoIix7H0itpqPM0nrNyFED70ePKc1HXl/rCHw+wzxsMJQKjMLyCarW5kVhY4z
mZzZwJZOjcEhuYyJGR+Fjw6SXiyT4flUiWmr6fim5h/eZNUlc9w2A3CIvO3A17Nf
B2x/a3MLyFe8gyQ/fFjWXtIFRC1q9IUTrrIjsMBOseo7lPTf0yYc2FsIow24tNu5
QQf0w4LMirEYcRXoY2BvRuPB/xwsqdmWqvDG46w0bxQ0Hpan3JDOwRAtoRBiJIaD
x3dhdTFa1mdF2IF0oZ8+lOO7DyQybLM2sU05FhrduK128o3QNyujpVbWAQtqPOdQ
zUPihcFB+g==
-----END CERTIFICATE-----
