-----BEGIN CERTIFICATE-----
MIIF+zCCA+OgAwIBAgIJAPF+Stl8a+iYMA0GCSqGSIb3DQEBDQUAMIGIMQswCQYD
VQQGEwJDQTELMAkGA1UECAwCUWMxDzANBgNVBAcMBlF1ZWJlYzEfMB0GA1UECgwW
SGFja2Zlc3QgQ29tbXVuaWNhdGlvbjEfMB0GA1UECwwWSGFja2Zlc3QgQ29tbXVu
aWNhdGlvbjEZMBcGA1UEAwwQSGFja2Zlc3Qgcm9vdCBDQTAeFw0xNTAzMTQwMDI1
NDNaFw0yNTAzMTEwMDI1NDNaMIGIMQswCQYDVQQGEwJDQTELMAkGA1UECAwCUWMx
DzANBgNVBAcMBlF1ZWJlYzEfMB0GA1UECgwWSGFja2Zlc3QgQ29tbXVuaWNhdGlv
bjEfMB0GA1UECwwWSGFja2Zlc3QgQ29tbXVuaWNhdGlvbjEZMBcGA1UEAwwQSGFj
a2Zlc3Qgcm9vdCBDQTCCAiIwDQYJKoZIhvcNAQEBBQADggIPADCCAgoCggIBANZg
yeolfCYpjLGhWIt74Rj48wrIlfyYS0Jh9nSAXvbWWfAAKlFAW5yjJI/O3RnxC0L8
IaM+uZXkZvjYzrqYtDBGqU0A9lBhoplXrYtTClGV9QGuh7Km0agacsJRJ/w+fPDr
y5wkDNQJnAiBv75ONLK5ExAc6YcEHUe5Tp1OE99ZoMyqb56gON9CQmKJRwKdvhnk
H6GQAOhDPNO4mJTA+9CWBl+oB2IwXIkwv8zCGm9GLbE3EEPdRvQzoFk2AQflO6KX
ZNk0KZQbmkHTNFAn/m+mSersmVQ8q19Wl+NqeFdLW17FBM6CKlnk+9VCXI4fLnKe
+DY0vQfr8SF2ytoWIe0D6GJcmKvg/6zJ16TbiiK6/mNlYZiPMjEbeYdzNOo+v0qY
QBEfgr44OsaueK/Teo8ZcC5zFJPaWM5vPlJwdAO/xPctI0iD3z9XcdO75G3G7vUm
RPNPuAgWvdipX4NMI9Zhnll8iWsYYRlzqMpLVJgjy2nRZlDnq8ohkzLQUWd3A/YZ
IVoleka3nok+E+AYmPkhojqSkNgrd2EbwtRUYhJ97ABehnFoLrACFSiHyn/SPOlu
sDL7td8i/M3+goRymCwxfk5Rm0LN+Rbj/hZiaN3WnmE6vNDGxYdmxVa1RDImuLyy
qPfInhndvj53QyA7Vmd4ZRng39lLGWxVmga2fuAhAgMBAAGjZjBkMA4GA1UdDwEB
/wQEAwIBBjASBgNVHRMBAf8ECDAGAQH/AgEBMB0GA1UdDgQWBBRp8wGyRgBZxteC
Nrv8CO0fg2CiuTAfBgNVHSMEGDAWgBRp8wGyRgBZxteCNrv8CO0fg2CiuTANBgkq
hkiG9w0BAQ0FAAOCAgEAvrIuem5eKdBrdyrIfQukODyrofmsOqdmu7v6IJiSDpcQ
2c6v6JXS6+kr7VPxYpnBkbE9J1UUWdv7PGAQX1rLas0tWwt8KZ8Q22uq/216Aren
bGe8JZBSh5XX+Fs9dFAatLy/yHR0JCUbbzwvVQlbxqq1NIYnwSYFt+1JlZBdjlZR
2WQ/v/BO4sxD92IiygdecSc7GOfP82QjQ9R43Qa7BsXggLU15sukUF5zHb9f+UND
VZg8xPMHjWwdbPfQw791wzXixxHbGUqFAsjEgE3GB15Z1ALGD9UnEu6qdc6ei72Z
DeKUH9cAayXDuzGKBrd2TaT7w6Qgq8wAYfR8hLZoMQk0ziS2bNoa+xGl1Q6wqgjk
GnI8xxzKQehCo/gGrz++LNs16Wgzl8Fu0MNSX/o+DXfQTQEf9l49LwCI/vAEHyXF
u+0u+0ZC8CroJwlLmIjPfyUMC+h0+iDCzJ/eBjjDRtC2whCQEH5fTfoiI/SvOuv+
fk1H4S1FKCWTqcaWXA0gPooTPGVhQpw3ZfcufDDhiNfXVFWfFav0oqiYD7w2tM93
8Zt0ZEfEyqAz4N0hJfT+pNB5mzN79JrwORXHokpDpNCLajV06c/liI8b1Ng2hwEW
WCFM/7xUD8Fmb5cSzuiouwbj67PT1uplLNAhhbeenxnvVzvqwHi5whC6KC32Bvw=
-----END CERTIFICATE-----
Certificate:
    Data:
        Version: 3 (0x2)
        Serial Number: 36 (0x24)
    Signature Algorithm: sha512WithRSAEncryption
        Issuer: C=CA, ST=Qc, L=Quebec, O=Hackfest Communication, OU=Hackfest Communication, CN=Hackfest root CA
        Validity
            Not Before: Mar 14 01:48:52 2015 GMT
            Not After : Nov  9 01:48:52 2015 GMT
        Subject: C=CA, ST=Qc, L=Quebec, O=Hackfest Communication, OU=Hackfest Communication, CN=Hackfest inter CA CTF 2015
        Subject Public Key Info:
            Public Key Algorithm: rsaEncryption
                Public-Key: (4096 bit)
                Modulus:
                    00:f4:ee:71:c7:d0:eb:2a:43:8b:fa:eb:81:6d:5e:
                    a5:83:84:4b:78:e7:65:b3:07:f5:40:df:94:17:82:
                    e6:d2:d2:78:e9:8f:b5:25:41:de:e3:01:7a:72:64:
                    37:25:94:ec:e5:91:ee:d6:a0:3d:23:27:db:a9:4f:
                    77:8a:b5:81:1b:7c:76:43:43:fb:6e:a8:1c:ce:9f:
                    a0:43:26:e3:55:c0:e1:b7:77:33:0b:b9:91:52:36:
                    37:f2:c8:ca:ca:d3:d0:cb:3b:4b:8d:e0:9f:cc:7a:
                    f3:27:30:47:1c:09:b5:d9:b0:9e:d0:3c:13:15:e2:
                    46:7d:70:b3:fa:59:2a:c6:66:f3:86:da:c6:2d:63:
                    fb:0f:60:9b:fc:14:3d:e0:f8:c6:46:8b:96:69:c2:
                    2c:f1:6b:df:0f:1a:db:d7:05:58:51:b0:a9:5c:4b:
                    34:ac:cc:79:08:6f:5b:ad:75:7e:8d:cb:4a:b3:33:
                    f6:d0:94:3b:c7:d8:3c:70:e9:19:06:fe:68:d8:78:
                    74:29:59:68:93:5b:61:07:72:ac:20:11:a2:a7:f1:
                    8e:51:af:30:28:ac:b2:4f:09:17:f6:72:df:95:bf:
                    ef:7f:31:e9:a5:ee:b8:ff:8b:ae:0a:97:4a:22:62:
                    36:61:7d:98:6d:0a:89:fc:f6:96:0f:48:c9:b6:1c:
                    b3:df:ba:49:04:58:ab:e8:e4:2e:5d:8f:11:56:be:
                    46:17:03:b5:66:d2:23:22:e7:22:0e:3e:d5:df:d1:
                    34:4d:31:f8:66:8c:a1:d7:42:14:f9:5c:bb:50:ed:
                    77:8c:0f:bd:4d:1f:1d:89:12:4f:67:17:45:4a:40:
                    cd:87:51:73:70:c9:b5:c9:6a:2a:d3:43:e4:23:63:
                    88:ec:10:50:fd:21:fa:cb:33:08:86:f2:bd:37:e2:
                    a6:59:a6:03:11:ae:3a:d9:fd:0f:0e:e7:28:49:37:
                    68:4d:5a:eb:4a:2d:19:e3:6c:cc:1c:d7:d9:a1:8c:
                    29:2e:06:84:ed:fb:20:4f:4b:67:47:20:65:50:cf:
                    5e:33:3e:b1:c2:38:9b:45:f0:3e:61:b2:0f:10:a8:
                    83:50:a1:7f:4f:97:65:af:00:ae:30:5f:4a:e9:4e:
                    04:f8:40:78:2c:18:85:74:3c:a7:6c:60:38:02:5f:
                    92:ba:86:48:35:0f:49:66:bc:06:fb:81:78:07:00:
                    a9:f3:8b:17:f5:8f:c8:7d:3e:78:00:69:b6:ce:46:
                    06:ac:3d:26:8f:97:b9:7d:43:b7:64:3b:12:a8:11:
                    a0:32:54:fd:de:58:75:bc:6f:56:55:fc:4b:0f:8a:
                    a8:53:b8:7a:31:8b:4c:d4:a1:ef:e7:3a:c6:bc:57:
                    bd:55:05
                Exponent: 65537 (0x10001)
        X509v3 extensions:
            X509v3 Key Usage: critical
                Certificate Sign, CRL Sign
            X509v3 Basic Constraints: critical
                CA:TRUE, pathlen:0
            X509v3 Subject Key Identifier: 
                58:86:E9:75:20:75:44:10:D5:D6:A5:D4:0E:29:97:18:6C:63:07:44
            X509v3 Authority Key Identifier: 
                keyid:69:F3:01:B2:46:00:59:C6:D7:82:36:BB:FC:08:ED:1F:83:60:A2:B9

    Signature Algorithm: sha512WithRSAEncryption
         5c:b8:1b:47:90:39:07:79:6f:91:b4:0e:19:03:d5:0f:fd:4d:
         21:ab:57:8c:c5:bc:ed:44:c2:41:a1:42:7f:92:c9:eb:1b:da:
         21:00:a0:5b:ed:37:c3:f6:fd:7e:e6:30:35:3b:1c:c7:ee:ba:
         0d:7d:2e:0d:20:fd:3f:b1:a6:37:98:8f:8e:c2:0f:d7:d6:58:
         37:e6:d0:2a:bf:d8:b4:a4:18:35:d8:3b:13:d9:61:d7:f8:df:
         29:98:e3:be:b6:4d:b2:76:d8:c9:f0:46:85:d7:a9:c6:b7:92:
         37:06:c9:6a:28:4d:16:db:3d:04:e7:fd:21:ba:ea:66:d1:b8:
         89:6d:87:a9:2b:0c:e9:02:84:1d:60:03:8d:9a:35:13:cb:38:
         7c:95:ef:11:c8:3e:e5:c9:aa:94:61:29:57:05:c8:7d:c3:61:
         d7:d7:4d:9c:20:9b:59:82:6c:44:b2:18:80:60:61:63:af:3c:
         fb:d0:6a:4c:9c:e8:8b:48:84:6d:2f:8e:51:e9:63:02:94:a2:
         0d:af:b7:16:60:9f:b3:f4:db:d3:88:b5:1f:8a:01:57:dd:ec:
         7f:39:47:97:8b:ad:92:5f:61:96:28:95:60:02:b8:5f:b6:fe:
         d7:91:b5:1d:23:65:1f:81:0f:cf:61:4d:07:82:0b:ed:90:1b:
         df:b6:07:4f:df:be:35:5d:67:dd:eb:fc:4e:35:a7:51:fa:e4:
         16:ae:7c:b6:29:a5:90:46:9b:3d:bb:57:f4:f9:b7:dc:9c:17:
         7f:e7:9b:f0:f6:6d:01:6d:c5:d7:c2:21:27:4f:69:7e:64:15:
         2f:f3:78:c5:fc:3c:78:60:09:61:19:58:cd:f8:a4:fe:65:d4:
         72:e3:69:4f:3f:0e:f4:f6:a3:d3:b5:91:7a:02:7f:4d:c2:e5:
         c3:79:84:76:a9:b9:46:85:2a:0d:89:8d:26:50:02:7e:01:c5:
         28:66:2a:27:0a:8b:6c:ab:c1:76:95:72:03:c4:36:a0:b7:a3:
         3c:0e:7d:c4:78:aa:c4:7d:26:13:45:0c:25:b6:b3:8d:90:06:
         be:26:99:07:6f:de:be:6f:f4:6a:0a:ae:fb:54:fe:6f:2f:e8:
         bb:6b:f4:ba:5d:8f:76:b5:77:9e:81:99:d1:5d:c7:fe:b3:93:
         b0:45:d8:ab:4c:dc:36:84:3b:e9:d0:91:5d:43:9f:6b:df:7f:
         21:8c:a4:94:56:36:8e:eb:52:f3:01:69:74:08:2e:af:ab:02:
         be:22:32:4f:0e:ee:fa:64:fc:f5:cd:e4:5b:1f:c8:66:38:cf:
         7a:75:21:35:50:86:1d:a1:e0:24:9e:5a:63:e7:7c:e7:44:aa:
         f4:dd:8c:f6:c0:14:25:f8
-----BEGIN CERTIFICATE-----
MIIF/TCCA+WgAwIBAgIBJDANBgkqhkiG9w0BAQ0FADCBiDELMAkGA1UEBhMCQ0Ex
CzAJBgNVBAgMAlFjMQ8wDQYDVQQHDAZRdWViZWMxHzAdBgNVBAoMFkhhY2tmZXN0
IENvbW11bmljYXRpb24xHzAdBgNVBAsMFkhhY2tmZXN0IENvbW11bmljYXRpb24x
GTAXBgNVBAMMEEhhY2tmZXN0IHJvb3QgQ0EwHhcNMTUwMzE0MDE0ODUyWhcNMTUx
MTA5MDE0ODUyWjCBkjELMAkGA1UEBhMCQ0ExCzAJBgNVBAgMAlFjMQ8wDQYDVQQH
DAZRdWViZWMxHzAdBgNVBAoMFkhhY2tmZXN0IENvbW11bmljYXRpb24xHzAdBgNV
BAsMFkhhY2tmZXN0IENvbW11bmljYXRpb24xIzAhBgNVBAMMGkhhY2tmZXN0IGlu
dGVyIENBIENURiAyMDE1MIICIjANBgkqhkiG9w0BAQEFAAOCAg8AMIICCgKCAgEA
9O5xx9DrKkOL+uuBbV6lg4RLeOdlswf1QN+UF4Lm0tJ46Y+1JUHe4wF6cmQ3JZTs
5ZHu1qA9IyfbqU93irWBG3x2Q0P7bqgczp+gQybjVcDht3czC7mRUjY38sjKytPQ
yztLjeCfzHrzJzBHHAm12bCe0DwTFeJGfXCz+lkqxmbzhtrGLWP7D2Cb/BQ94PjG
RouWacIs8WvfDxrb1wVYUbCpXEs0rMx5CG9brXV+jctKszP20JQ7x9g8cOkZBv5o
2Hh0KVlok1thB3KsIBGip/GOUa8wKKyyTwkX9nLflb/vfzHppe64/4uuCpdKImI2
YX2YbQqJ/PaWD0jJthyz37pJBFir6OQuXY8RVr5GFwO1ZtIjIuciDj7V39E0TTH4
Zoyh10IU+Vy7UO13jA+9TR8diRJPZxdFSkDNh1FzcMm1yWoq00PkI2OI7BBQ/SH6
yzMIhvK9N+KmWaYDEa462f0PDucoSTdoTVrrSi0Z42zMHNfZoYwpLgaE7fsgT0tn
RyBlUM9eMz6xwjibRfA+YbIPEKiDUKF/T5dlrwCuMF9K6U4E+EB4LBiFdDynbGA4
Al+SuoZINQ9JZrwG+4F4BwCp84sX9Y/IfT54AGm2zkYGrD0mj5e5fUO3ZDsSqBGg
MlT93lh1vG9WVfxLD4qoU7h6MYtM1KHv5zrGvFe9VQUCAwEAAaNmMGQwDgYDVR0P
AQH/BAQDAgEGMBIGA1UdEwEB/wQIMAYBAf8CAQAwHQYDVR0OBBYEFFiG6XUgdUQQ
1dal1A4plxhsYwdEMB8GA1UdIwQYMBaAFGnzAbJGAFnG14I2u/wI7R+DYKK5MA0G
CSqGSIb3DQEBDQUAA4ICAQBcuBtHkDkHeW+RtA4ZA9UP/U0hq1eMxbztRMJBoUJ/
ksnrG9ohAKBb7TfD9v1+5jA1OxzH7roNfS4NIP0/saY3mI+Owg/X1lg35tAqv9i0
pBg12DsT2WHX+N8pmOO+tk2ydtjJ8EaF16nGt5I3BslqKE0W2z0E5/0huupm0biJ
bYepKwzpAoQdYAONmjUTyzh8le8RyD7lyaqUYSlXBch9w2HX102cIJtZgmxEshiA
YGFjrzz70GpMnOiLSIRtL45R6WMClKINr7cWYJ+z9NvTiLUfigFX3ex/OUeXi62S
X2GWKJVgArhftv7XkbUdI2UfgQ/PYU0HggvtkBvftgdP3741XWfd6/xONadR+uQW
rny2KaWQRps9u1f0+bfcnBd/55vw9m0BbcXXwiEnT2l+ZBUv83jF/Dx4YAlhGVjN
+KT+ZdRy42lPPw709qPTtZF6An9NwuXDeYR2qblGhSoNiY0mUAJ+AcUoZionCots
q8F2lXIDxDagt6M8Dn3EeKrEfSYTRQwltrONkAa+JpkHb96+b/RqCq77VP5vL+i7
a/S6XY92tXeegZnRXcf+s5OwRdirTNw2hDvp0JFdQ59r338hjKSUVjaO61LzAWl0
CC6vqwK+IjJPDu76ZPz1zeRbH8hmOM96dSE1UIYdoeAknlpj53znRKr03Yz2wBQl
+A==
-----END CERTIFICATE-----
