Certificate:
    Data:
        Version: 3 (0x2)
        Serial Number: 35 (0x23)
    Signature Algorithm: sha512WithRSAEncryption
        Issuer: C=CA, ST=Qc, L=Quebec, O=My Org, OU=My Org Department, CN=My Org CA
        Validity
            Not Before: Dec 29 04:42:10 2014 GMT
            Not After : Dec 28 04:42:10 2024 GMT
        Subject: C=CA, ST=Qc, L=Quebec, O=My Org, OU=My Org Department, CN=flagupdater
        Subject Public Key Info:
            Public Key Algorithm: rsaEncryption
                Public-Key: (4096 bit)
                Modulus:
                    00:ba:d8:ee:81:b2:eb:d6:65:95:e0:57:d6:f9:9d:
                    44:b9:e9:a3:d8:97:8b:c9:74:a5:34:17:98:c8:99:
                    e3:ed:3b:79:99:33:af:0a:2a:04:1a:12:b6:2c:e0:
                    23:ec:86:8e:80:38:34:98:ea:c0:0a:96:eb:59:c1:
                    c6:ed:56:54:35:f7:44:a8:5b:1c:39:ca:82:f7:45:
                    1d:70:f5:ed:14:b4:a1:75:b1:ef:7e:15:54:77:9b:
                    81:ba:92:b5:ec:11:83:de:6f:f1:2a:cf:95:ce:81:
                    b1:54:10:d0:2b:c5:dc:ff:d1:57:69:f1:8f:45:39:
                    d0:b9:8a:e0:9a:30:23:39:71:44:75:94:e7:25:a7:
                    9b:e1:2a:f4:e9:c2:95:d6:f0:83:b5:42:79:c3:cc:
                    2d:b5:db:b1:9d:a3:07:76:b8:91:31:4c:8b:4e:79:
                    d3:b1:76:34:f3:ab:f8:69:b8:6a:ad:c0:e2:74:ac:
                    c9:8d:03:fb:fd:52:d2:1f:b1:27:3f:9f:de:d8:b3:
                    e0:29:6f:00:cc:ef:df:88:13:2e:7e:53:3f:e7:54:
                    73:ff:26:d5:77:56:90:c9:22:07:03:39:ed:14:8a:
                    11:0a:54:22:b5:8f:c3:a5:f3:89:70:81:61:f4:e1:
                    c4:60:3d:4c:cf:86:9c:44:92:c9:4b:24:da:c1:02:
                    28:9f:ad:89:a5:b3:bd:6d:b4:a7:61:c3:50:34:53:
                    33:ea:65:93:90:95:e7:fd:d6:22:4b:ee:bd:f2:12:
                    97:f6:0f:e3:7c:a7:f6:58:cc:2f:d4:44:3a:8e:44:
                    7e:85:65:64:d4:6c:23:fc:ba:cd:c0:45:fc:99:79:
                    42:62:0b:cb:78:f6:50:5a:26:90:32:ff:66:f3:d1:
                    a4:17:92:7c:f6:a2:8a:62:61:ae:48:3a:28:71:31:
                    9f:3c:2a:a0:2d:e3:5c:7c:2b:71:7c:a5:a8:d4:6d:
                    60:8c:8b:b8:f0:7e:7a:bf:a8:83:8a:ca:28:e3:8b:
                    c5:39:7b:22:0d:c7:f6:18:9b:4f:64:d5:38:1a:82:
                    86:e5:63:c0:25:e8:2f:ad:8b:11:21:a4:8f:e2:44:
                    04:ec:bc:5f:ab:7f:61:a4:62:cb:70:95:9c:6a:4b:
                    5d:4a:0e:2e:a7:83:d4:60:5f:72:12:af:5f:29:c2:
                    e2:b0:2c:b1:2c:c4:93:5d:69:93:b5:f2:35:bf:94:
                    03:1c:20:a0:e5:45:7b:aa:d3:9a:e3:44:ee:0b:46:
                    07:89:1b:db:30:52:da:13:f5:45:53:10:95:95:be:
                    da:38:24:c1:9a:e3:16:65:22:8b:d4:27:b5:d0:ac:
                    72:88:94:2c:c5:ca:0c:ee:3f:6d:16:7f:83:d9:89:
                    21:ad:cd
                Exponent: 65537 (0x10001)
        X509v3 extensions:
            X509v3 Key Usage: critical
                Digital Signature, Key Encipherment
            X509v3 Basic Constraints: critical
                CA:FALSE
            X509v3 Extended Key Usage: 
                TLS Web Client Authentication
            X509v3 Subject Key Identifier: 
                D1:94:84:63:98:A6:89:9B:C9:04:F8:15:EF:8B:FE:A6:EE:89:38:C1
    Signature Algorithm: sha512WithRSAEncryption
         9c:3f:e4:d8:82:ac:fa:64:23:16:86:f4:ef:f9:e6:39:9a:d0:
         d6:68:72:5c:6e:e0:4a:c3:e8:ca:e2:35:70:64:13:b5:e5:12:
         34:f5:03:75:85:64:a5:da:90:1c:7b:3f:3e:e5:34:dc:99:78:
         21:66:9d:07:bc:bf:14:8b:83:c4:3c:3b:0f:b4:bd:da:4d:73:
         f0:e3:ba:bb:82:9c:1d:a1:8c:2c:b2:66:d9:35:79:24:19:9f:
         b0:99:72:dd:33:4c:f7:19:b0:c4:bd:3f:5d:fc:c4:78:1c:31:
         9c:25:b4:f3:db:5a:52:5c:b5:f9:d2:a7:36:1f:7d:e0:7e:f5:
         b5:9d:a9:31:8f:5b:0d:ec:65:ed:d1:db:b9:5e:29:90:ec:aa:
         b6:50:74:01:ba:ab:56:59:ba:86:c4:12:27:04:60:3b:e5:36:
         b5:51:63:e9:c8:79:f4:db:8f:db:13:42:e3:ba:55:6f:26:de:
         1d:ad:d0:82:d1:38:02:94:3f:51:1f:cc:bd:8e:a7:9e:90:fb:
         06:07:10:b3:e8:9a:64:1f:0c:ee:a0:dc:92:da:1d:ae:a0:6c:
         a5:42:c2:7c:2a:a4:95:d0:a9:36:82:67:42:44:68:ea:15:ad:
         72:ff:30:42:d6:59:eb:55:cb:16:8c:d6:bc:a3:36:ca:e3:65:
         24:99:c2:b3:27:05:96:db:38:d9:ff:d7:6b:90:e6:32:cb:2b:
         6a:49:e3:3e:8f:33:98:35:b6:80:5f:ac:1a:87:e9:a0:72:de:
         ac:96:49:84:6b:c1:c9:29:3c:9c:06:63:9a:5f:e1:d0:d2:8f:
         61:a6:1f:85:80:20:4e:4c:6d:86:8e:85:80:f9:d3:88:cd:f1:
         3c:72:ec:ba:1b:78:8c:6c:85:16:5d:f3:38:72:9b:2c:42:f8:
         fa:69:07:11:82:fe:9c:67:30:a8:15:6d:b2:9a:20:cd:93:66:
         84:1f:fa:72:5d:c9:68:3a:07:30:ce:33:4f:a9:99:4e:20:b2:
         e9:04:46:9b:a4:e7:28:a0:00:0c:b9:ef:b3:99:85:44:1c:f2:
         8f:41:dc:9e:91:70:e5:e9:35:3a:d9:c9:f1:be:ed:de:7f:9b:
         85:d8:eb:ae:87:fb:2d:03:d9:bf:95:c1:bf:1a:c9:04:23:9a:
         87:c8:49:13:bd:35:a8:cf:11:8c:9e:10:3c:37:2a:84:74:e5:
         87:b4:3a:3a:ee:67:2f:30:5f:21:89:e7:ee:59:b0:01:75:fe:
         f2:73:c0:fa:af:2c:2f:d7:2b:d2:b0:3d:66:29:8a:fa:d0:de:
         c6:6c:cc:e5:4c:7c:b2:dc:4d:b6:1a:4f:d3:2e:aa:1b:be:51:
         5c:5b:f6:42:42:7b:f2:a2
-----BEGIN CERTIFICATE-----
MIIFqTCCA5GgAwIBAgIBIzANBgkqhkiG9w0BAQ0FADBsMQswCQYDVQQGEwJDQTEL
MAkGA1UECAwCUWMxDzANBgNVBAcMBlF1ZWJlYzEPMA0GA1UECgwGTXkgT3JnMRow
GAYDVQQLDBFNeSBPcmcgRGVwYXJ0bWVudDESMBAGA1UEAwwJTXkgT3JnIENBMB4X
DTE0MTIyOTA0NDIxMFoXDTI0MTIyODA0NDIxMFowbjELMAkGA1UEBhMCQ0ExCzAJ
BgNVBAgMAlFjMQ8wDQYDVQQHDAZRdWViZWMxDzANBgNVBAoMBk15IE9yZzEaMBgG
A1UECwwRTXkgT3JnIERlcGFydG1lbnQxFDASBgNVBAMMC2ZsYWd1cGRhdGVyMIIC
IjANBgkqhkiG9w0BAQEFAAOCAg8AMIICCgKCAgEAutjugbLr1mWV4FfW+Z1Euemj
2JeLyXSlNBeYyJnj7Tt5mTOvCioEGhK2LOAj7IaOgDg0mOrACpbrWcHG7VZUNfdE
qFscOcqC90UdcPXtFLShdbHvfhVUd5uBupK17BGD3m/xKs+VzoGxVBDQK8Xc/9FX
afGPRTnQuYrgmjAjOXFEdZTnJaeb4Sr06cKV1vCDtUJ5w8wttduxnaMHdriRMUyL
TnnTsXY086v4abhqrcDidKzJjQP7/VLSH7EnP5/e2LPgKW8AzO/fiBMuflM/51Rz
/ybVd1aQySIHAzntFIoRClQitY/DpfOJcIFh9OHEYD1Mz4acRJLJSyTawQIon62J
pbO9bbSnYcNQNFMz6mWTkJXn/dYiS+698hKX9g/jfKf2WMwv1EQ6jkR+hWVk1Gwj
/LrNwEX8mXlCYgvLePZQWiaQMv9m89GkF5J89qKKYmGuSDoocTGfPCqgLeNcfCtx
fKWo1G1gjIu48H56v6iDisoo44vFOXsiDcf2GJtPZNU4GoKG5WPAJegvrYsRIaSP
4kQE7Lxfq39hpGLLcJWcaktdSg4up4PUYF9yEq9fKcLisCyxLMSTXWmTtfI1v5QD
HCCg5UV7qtOa40TuC0YHiRvbMFLaE/VFUxCVlb7aOCTBmuMWZSKL1Ce10KxyiJQs
xcoM7j9tFn+D2Ykhrc0CAwEAAaNUMFIwDgYDVR0PAQH/BAQDAgWgMAwGA1UdEwEB
/wQCMAAwEwYDVR0lBAwwCgYIKwYBBQUHAwIwHQYDVR0OBBYEFNGUhGOYpombyQT4
Fe+L/qbuiTjBMA0GCSqGSIb3DQEBDQUAA4ICAQCcP+TYgqz6ZCMWhvTv+eY5mtDW
aHJcbuBKw+jK4jVwZBO15RI09QN1hWSl2pAcez8+5TTcmXghZp0HvL8Ui4PEPDsP
tL3aTXPw47q7gpwdoYwssmbZNXkkGZ+wmXLdM0z3GbDEvT9d/MR4HDGcJbTz21pS
XLX50qc2H33gfvW1nakxj1sN7GXt0du5XimQ7Kq2UHQBuqtWWbqGxBInBGA75Ta1
UWPpyHn024/bE0LjulVvJt4drdCC0TgClD9RH8y9jqeekPsGBxCz6JpkHwzuoNyS
2h2uoGylQsJ8KqSV0Kk2gmdCRGjqFa1y/zBC1lnrVcsWjNa8ozbK42UkmcKzJwWW
2zjZ/9drkOYyyytqSeM+jzOYNbaAX6wah+mgct6slkmEa8HJKTycBmOaX+HQ0o9h
ph+FgCBOTG2GjoWA+dOIzfE8cuy6G3iMbIUWXfM4cpssQvj6aQcRgv6cZzCoFW2y
miDNk2aEH/pyXcloOgcwzjNPqZlOILLpBEabpOcooAAMue+zmYVEHPKPQdyekXDl
6TU62cnxvu3ef5uF2Ouuh/stA9m/lcG/GskEI5qHyEkTvTWozxGMnhA8NyqEdOWH
tDo67mcvMF8hiefuWbABdf7yc8D6rywv1yvSsD1mKYr60N7GbMzlTHyy3E22Gk/T
LqobvlFcW/ZCQnvyog==
-----END CERTIFICATE-----
