Certificate:
    Data:
        Version: 3 (0x2)
        Serial Number: 36 (0x24)
    Signature Algorithm: sha512WithRSAEncryption
        Issuer: C=CA, ST=Qc, L=Quebec, O=My Org, OU=My Org Department, CN=My Org CA
        Validity
            Not Before: Dec 29 04:42:13 2014 GMT
            Not After : Dec 28 04:42:13 2024 GMT
        Subject: C=CA, ST=Qc, L=Quebec, O=My Org, OU=My Org Department, CN=web
        Subject Public Key Info:
            Public Key Algorithm: rsaEncryption
                Public-Key: (4096 bit)
                Modulus:
                    00:9e:2a:4b:32:8b:07:ae:fe:e9:a8:ca:39:58:03:
                    14:f8:8c:01:46:29:15:46:5e:cd:a8:5a:cc:1f:2c:
                    8f:8c:10:37:bb:50:9e:8e:d5:dc:e8:9c:c7:9e:db:
                    8a:04:41:c0:5a:49:75:0d:35:e5:8c:a9:5f:19:75:
                    fe:44:73:81:13:ce:ee:45:0c:ff:f0:20:53:97:6c:
                    f4:0e:a0:f8:3b:7b:f2:6c:a7:ae:84:8c:8e:4f:45:
                    f0:21:6f:18:eb:c8:13:ff:12:17:3d:67:8b:c1:64:
                    70:37:8b:4a:d8:53:31:87:31:08:ff:e3:c2:87:87:
                    7e:bc:77:ef:e2:fe:60:40:c9:7f:fa:56:63:47:b4:
                    03:28:09:1e:ef:63:c5:ce:19:3d:76:4c:f9:43:7e:
                    b8:a4:4a:85:70:1f:d9:08:16:0d:41:31:f4:72:17:
                    f4:39:3b:34:27:b1:a5:f2:f3:3c:ee:75:bc:83:44:
                    02:31:49:bb:7a:30:7a:3e:ad:a9:78:d5:f6:6a:c1:
                    d7:51:59:95:91:ba:da:c1:86:f5:f5:9e:24:8c:9e:
                    5c:bb:9a:93:c9:a9:e2:26:e0:94:06:35:3d:12:6e:
                    f5:6c:5c:66:93:93:88:6d:e0:03:e7:e7:ef:d1:d0:
                    69:25:14:9e:08:ec:96:4b:94:f9:21:25:d5:3e:47:
                    83:71:e6:5d:d9:d7:d9:94:00:c2:f1:0a:ee:21:a4:
                    5b:25:b8:86:3a:09:c9:83:a3:63:98:d4:58:d5:f0:
                    70:41:b2:38:66:73:e0:2b:ea:45:43:30:b5:de:94:
                    64:d5:2f:9a:9c:84:82:25:ae:58:75:4f:58:c3:7c:
                    c5:77:3c:0d:50:57:d8:3e:c8:7f:a4:0f:7f:50:53:
                    72:3e:8e:3e:c3:e7:1c:ff:3d:b3:84:0e:cc:1e:15:
                    01:6e:5c:6f:c1:3f:ee:01:98:5f:fe:19:83:2d:dd:
                    84:43:61:8d:f7:29:af:6d:28:77:3c:5d:32:2c:64:
                    f3:47:ed:bc:04:2e:91:35:b6:e9:a9:bb:bd:e6:75:
                    7b:66:1c:21:e3:02:cb:36:67:79:86:1b:9e:50:0a:
                    65:36:3a:ce:96:92:64:ca:0e:2b:ee:1b:13:e8:e7:
                    be:d7:8c:d0:a8:e3:10:86:45:ed:8a:4a:07:68:b4:
                    bb:5d:0a:c2:f5:35:05:24:f0:e0:38:31:78:0e:0e:
                    4e:8a:ed:ac:17:d2:f3:0e:53:1e:23:1b:37:66:ed:
                    89:67:e4:5b:e1:d5:f0:27:08:e1:3f:ff:0a:fd:ba:
                    e8:2c:5e:3c:10:d8:90:3d:b2:05:69:10:25:35:36:
                    71:ab:92:a8:9e:7f:e4:c3:74:de:d7:26:9d:08:9f:
                    db:db:65
                Exponent: 65537 (0x10001)
        X509v3 extensions:
            X509v3 Key Usage: critical
                Digital Signature, Key Encipherment
            X509v3 Basic Constraints: critical
                CA:FALSE
            X509v3 Extended Key Usage: 
                TLS Web Client Authentication
            X509v3 Subject Key Identifier: 
                BB:E5:8A:93:1D:12:50:FD:6C:7F:C0:B3:4D:96:5F:57:87:73:CE:08
    Signature Algorithm: sha512WithRSAEncryption
         52:33:20:14:99:c8:27:58:b8:62:c5:f4:c8:cc:ef:df:72:48:
         f0:e0:22:59:d4:b4:5f:97:2e:1c:5a:f6:1d:dd:14:77:0f:13:
         c4:17:7b:4b:b8:dc:98:2a:8a:f3:72:02:ad:b0:6b:d0:b3:d7:
         16:65:f2:9e:ef:12:61:3e:93:5f:74:7c:40:f2:8e:68:9a:f1:
         60:a4:ba:a6:94:5f:b2:d9:10:ba:fd:c2:b5:92:52:b2:2b:04:
         c8:df:93:91:e0:48:51:cc:7c:01:c3:0e:6d:4b:c4:23:1a:e5:
         dd:47:a5:e4:f8:15:38:54:f6:84:74:78:26:26:c4:20:8f:86:
         e4:f4:ea:ae:58:52:08:7a:c5:45:48:4d:c0:7c:ea:db:1e:b3:
         06:da:bc:aa:5a:9d:b5:e4:05:af:c1:86:7a:71:b3:16:a6:04:
         7e:74:82:73:e6:9a:76:ab:89:6b:3a:f4:60:2d:03:67:d3:b2:
         d4:e2:f3:cc:2c:ee:73:3f:32:67:2e:41:d3:a4:a7:f5:98:68:
         88:0e:5f:b6:c5:a6:21:de:48:f1:60:f5:3f:87:c2:51:3a:2c:
         94:94:8f:45:42:21:5a:29:ae:c2:47:41:41:98:07:41:5f:90:
         ea:ba:a6:a0:0f:e8:a3:51:e1:e1:c5:da:aa:b9:fc:38:01:7c:
         73:1a:3a:63:c5:d6:e8:dc:7e:35:35:f6:1e:b9:da:19:22:c5:
         c3:bb:fa:92:49:0c:09:00:10:f7:e8:e0:a0:30:02:6a:c2:16:
         8a:0f:d5:c2:9d:39:00:69:67:20:d3:66:7a:4f:8b:b0:55:30:
         69:4e:29:5c:25:27:9c:67:10:dd:c3:8e:b7:1a:29:b7:96:56:
         40:cd:ca:37:8e:2b:35:35:ed:99:83:97:d4:53:72:8e:53:0f:
         1c:1a:84:4b:21:4b:61:bf:04:f1:8c:9e:ef:e2:0e:58:d9:8a:
         c9:1f:7e:02:21:3c:78:02:4c:e9:2f:ab:ac:c4:aa:b3:30:6a:
         d4:83:d2:7a:dd:3f:88:03:76:2c:eb:9c:4d:44:89:be:91:e3:
         04:d1:0e:29:f5:c8:1e:5e:4d:3c:08:f3:00:3e:5c:f4:4d:e2:
         d6:74:a6:63:b7:62:ef:9d:d3:6f:72:89:8b:79:2a:66:16:a3:
         2b:84:48:e8:34:b6:e7:f5:63:98:23:a7:b4:83:42:d4:fe:11:
         e7:80:3b:e8:fc:ea:9b:3b:a5:bb:f1:32:a6:3a:6e:55:65:a6:
         17:6b:58:a7:6d:78:4b:e0:9e:8d:07:57:95:c3:23:6b:14:6b:
         8a:d4:30:42:bc:2d:32:f4:0a:a4:44:41:57:b9:b8:0e:5f:25:
         75:f9:2e:e5:59:79:4a:6f
-----BEGIN CERTIFICATE-----
MIIFoTCCA4mgAwIBAgIBJDANBgkqhkiG9w0BAQ0FADBsMQswCQYDVQQGEwJDQTEL
MAkGA1UECAwCUWMxDzANBgNVBAcMBlF1ZWJlYzEPMA0GA1UECgwGTXkgT3JnMRow
GAYDVQQLDBFNeSBPcmcgRGVwYXJ0bWVudDESMBAGA1UEAwwJTXkgT3JnIENBMB4X
DTE0MTIyOTA0NDIxM1oXDTI0MTIyODA0NDIxM1owZjELMAkGA1UEBhMCQ0ExCzAJ
BgNVBAgMAlFjMQ8wDQYDVQQHDAZRdWViZWMxDzANBgNVBAoMBk15IE9yZzEaMBgG
A1UECwwRTXkgT3JnIERlcGFydG1lbnQxDDAKBgNVBAMMA3dlYjCCAiIwDQYJKoZI
hvcNAQEBBQADggIPADCCAgoCggIBAJ4qSzKLB67+6ajKOVgDFPiMAUYpFUZezaha
zB8sj4wQN7tQno7V3Oicx57bigRBwFpJdQ015YypXxl1/kRzgRPO7kUM//AgU5ds
9A6g+Dt78mynroSMjk9F8CFvGOvIE/8SFz1ni8FkcDeLSthTMYcxCP/jwoeHfrx3
7+L+YEDJf/pWY0e0AygJHu9jxc4ZPXZM+UN+uKRKhXAf2QgWDUEx9HIX9Dk7NCex
pfLzPO51vINEAjFJu3owej6tqXjV9mrB11FZlZG62sGG9fWeJIyeXLuak8mp4ibg
lAY1PRJu9WxcZpOTiG3gA+fn79HQaSUUngjslkuU+SEl1T5Hg3HmXdnX2ZQAwvEK
7iGkWyW4hjoJyYOjY5jUWNXwcEGyOGZz4CvqRUMwtd6UZNUvmpyEgiWuWHVPWMN8
xXc8DVBX2D7If6QPf1BTcj6OPsPnHP89s4QOzB4VAW5cb8E/7gGYX/4Zgy3dhENh
jfcpr20odzxdMixk80ftvAQukTW26am7veZ1e2YcIeMCyzZneYYbnlAKZTY6zpaS
ZMoOK+4bE+jnvteM0KjjEIZF7YpKB2i0u10KwvU1BSTw4DgxeA4OTortrBfS8w5T
HiMbN2btiWfkW+HV8CcI4T//Cv266CxePBDYkD2yBWkQJTU2cauSqJ5/5MN03tcm
nQif29tlAgMBAAGjVDBSMA4GA1UdDwEB/wQEAwIFoDAMBgNVHRMBAf8EAjAAMBMG
A1UdJQQMMAoGCCsGAQUFBwMCMB0GA1UdDgQWBBS75YqTHRJQ/Wx/wLNNll9Xh3PO
CDANBgkqhkiG9w0BAQ0FAAOCAgEAUjMgFJnIJ1i4YsX0yMzv33JI8OAiWdS0X5cu
HFr2Hd0Udw8TxBd7S7jcmCqK83ICrbBr0LPXFmXynu8SYT6TX3R8QPKOaJrxYKS6
ppRfstkQuv3CtZJSsisEyN+TkeBIUcx8AcMObUvEIxrl3Uel5PgVOFT2hHR4JibE
II+G5PTqrlhSCHrFRUhNwHzq2x6zBtq8qlqdteQFr8GGenGzFqYEfnSCc+aadquJ
azr0YC0DZ9Oy1OLzzCzucz8yZy5B06Sn9ZhoiA5ftsWmId5I8WD1P4fCUToslJSP
RUIhWimuwkdBQZgHQV+Q6rqmoA/oo1Hh4cXaqrn8OAF8cxo6Y8XW6Nx+NTX2Hrna
GSLFw7v6kkkMCQAQ9+jgoDACasIWig/Vwp05AGlnINNmek+LsFUwaU4pXCUnnGcQ
3cOOtxopt5ZWQM3KN44rNTXtmYOX1FNyjlMPHBqESyFLYb8E8Yye7+IOWNmKyR9+
AiE8eAJM6S+rrMSqszBq1IPSet0/iAN2LOucTUSJvpHjBNEOKfXIHl5NPAjzAD5c
9E3i1nSmY7di753Tb3KJi3kqZhajK4RI6DS25/VjmCOntINC1P4R54A76Pzqmzul
u/EypjpuVWWmF2tYp214S+CejQdXlcMjaxRritQwQrwtMvQKpERBV7m4Dl8ldfku
5Vl5Sm8=
-----END CERTIFICATE-----
