Certificate:
    Data:
        Version: 3 (0x2)
        Serial Number: 33 (0x21)
    Signature Algorithm: sha512WithRSAEncryption
        Issuer: C=CA, ST=Qc, L=Quebec, O=My Org, OU=My Org Department, CN=My Org CA
        Validity
            Not Before: Dec 29 04:42:00 2014 GMT
            Not After : Dec 28 04:42:00 2024 GMT
        Subject: C=CA, ST=Qc, L=Quebec, O=My Org, OU=My Org Department, CN=db.hf
        Subject Public Key Info:
            Public Key Algorithm: rsaEncryption
                Public-Key: (4096 bit)
                Modulus:
                    00:cf:f6:a1:70:2c:29:8b:2c:b6:2b:56:ca:dd:54:
                    95:95:b8:68:e1:9b:05:5f:fa:89:84:6d:e2:3b:93:
                    fa:3f:39:79:62:69:a3:6b:c3:db:23:ae:97:72:1b:
                    56:12:38:3e:5d:e6:a7:2d:d0:48:cc:bb:86:42:89:
                    30:cd:db:57:3b:31:f4:7d:41:10:91:d0:47:ef:d0:
                    68:11:5b:03:75:58:2a:b6:d9:6a:06:b4:4d:3c:e5:
                    1c:18:d8:2b:d4:6f:b0:a3:9d:ee:e2:5f:68:27:65:
                    fb:8f:ec:6d:2c:27:75:3e:82:6a:ef:63:4f:6a:15:
                    24:fd:48:65:e7:b0:2e:dc:63:7b:1d:d5:9b:4a:36:
                    e4:fc:46:78:9c:6f:8b:ab:f5:72:8e:20:0a:6c:72:
                    12:e0:92:4b:03:ab:ba:49:0e:c4:f1:66:44:08:c8:
                    c2:f9:8b:a6:8d:a5:a7:0f:21:f8:10:8f:26:9f:58:
                    76:3c:42:1d:f1:25:1b:a8:1c:b2:88:bf:e3:35:37:
                    8d:e3:cc:9f:1f:4c:2e:25:23:50:33:e3:e9:77:55:
                    85:e0:db:f1:e3:62:4a:49:1e:e2:41:d5:f6:94:25:
                    a3:a0:e8:89:f0:0c:73:ce:57:a2:1b:c2:75:5a:f4:
                    2a:36:5c:92:61:19:39:17:e3:b4:e4:7f:21:8c:32:
                    c9:5e:75:cd:10:7b:25:ef:48:be:ee:71:dc:9a:71:
                    6f:ee:0d:0f:fb:f4:72:03:f8:e0:35:fe:4f:b7:ca:
                    50:2a:37:24:04:a6:a2:6b:bd:d4:82:4f:6b:13:38:
                    2e:2b:10:5a:26:06:d6:ec:33:6a:b0:3d:45:0f:fa:
                    70:3e:66:76:92:3c:f6:ee:19:16:f7:d5:af:d3:29:
                    51:9a:8f:80:25:47:0f:24:95:a3:a7:a4:dc:90:b5:
                    b1:dc:e2:4e:85:47:8b:02:b5:cd:27:78:dd:53:b2:
                    88:9d:d8:77:b2:6a:ce:10:10:47:d3:40:d7:3d:0d:
                    33:12:86:5e:a2:54:4a:8f:9d:3c:40:9a:3d:36:ee:
                    15:c5:55:e2:4d:94:fd:56:a0:de:b0:4d:48:6c:5d:
                    37:af:5a:bc:03:ae:69:e7:2b:82:7a:94:8f:c3:59:
                    7d:54:87:1a:47:89:af:58:11:54:40:23:88:3d:05:
                    79:ca:ab:a3:c0:db:0f:94:1d:eb:3a:93:8d:a2:1a:
                    f4:91:73:79:61:63:46:23:4e:f4:34:dd:e3:7d:8b:
                    a5:6a:78:42:14:6b:af:c7:61:89:f1:c2:d0:37:c8:
                    81:70:92:c6:83:1f:6c:a8:fc:4f:6c:fb:15:04:2f:
                    b6:44:35:c3:12:88:ee:77:8b:c6:bf:f6:c1:a3:4a:
                    6f:20:b5
                Exponent: 65537 (0x10001)
        X509v3 extensions:
            X509v3 Key Usage: critical
                Digital Signature, Key Encipherment
            X509v3 Basic Constraints: critical
                CA:FALSE
            X509v3 Extended Key Usage: 
                TLS Web Server Authentication
            X509v3 Subject Key Identifier: 
                17:AD:05:68:98:5E:0B:C4:28:B7:2F:B8:36:16:84:C5:A6:57:2F:D5
    Signature Algorithm: sha512WithRSAEncryption
         61:a4:cf:67:5c:6b:e6:d1:d0:f3:be:d2:27:72:2c:03:ed:02:
         9b:36:8f:20:e7:a0:e7:36:55:b1:ed:cd:1b:3f:4d:81:68:dc:
         11:c8:af:1b:82:73:53:29:8c:9a:ab:d8:2e:98:9e:89:74:04:
         c6:57:b3:12:e9:c5:6d:a9:6e:cf:49:70:1e:81:c2:03:b2:93:
         70:30:19:53:4a:ba:8e:c1:63:08:c3:18:3f:b4:05:e2:a4:9d:
         fb:d6:4f:84:3b:c4:23:55:69:1e:a6:68:6d:b0:bf:ea:ff:f2:
         2d:19:32:77:cc:b9:1b:62:98:28:1e:05:e6:f2:fc:39:a6:d9:
         6b:13:d3:b9:b0:7a:f3:bc:1e:f6:1e:06:ee:11:a9:67:a7:a3:
         9a:b8:a0:46:31:04:14:22:3e:82:73:ad:a2:4e:19:77:af:fd:
         9b:a3:f5:55:68:51:1b:9e:06:e7:48:93:42:d6:e2:c2:90:9c:
         f5:52:34:e1:ce:b8:f4:8e:e4:73:b5:fa:1a:2a:3c:d0:80:22:
         be:93:1f:c0:73:b7:35:64:de:32:11:47:aa:42:2a:33:77:c5:
         dd:80:0c:97:86:a5:4a:23:0e:2a:a5:4d:62:ff:eb:9e:e8:71:
         be:06:6f:ea:d2:86:c2:06:ec:97:13:4a:81:92:e0:34:1b:c1:
         a2:49:12:8a:58:b4:0d:4b:94:a4:85:ae:f1:87:9d:d1:09:7c:
         71:fa:15:01:27:8e:ee:73:42:b5:f8:ba:5c:6f:09:2e:21:da:
         17:5c:f9:6f:ce:bd:8b:90:0e:87:ea:3b:e9:f9:58:92:09:29:
         1b:4e:21:34:0a:c5:43:09:64:f9:d8:da:57:15:4e:97:40:2e:
         cc:13:6b:9d:aa:a9:a0:98:b4:db:b1:d2:76:68:7e:d7:4b:29:
         b9:d5:04:99:ea:00:c8:60:9e:fc:e6:a4:81:5a:84:13:dd:8c:
         15:b1:35:79:66:4e:5d:25:e4:b3:6d:52:03:40:a5:d9:20:21:
         ea:8e:c4:b6:51:d6:52:e6:0d:96:7b:d5:a9:f7:bd:0d:85:ce:
         30:ec:95:f1:86:37:a4:fd:b1:c8:d1:46:a5:d2:a3:54:1d:46:
         d8:38:36:c1:9e:11:16:23:d6:6f:88:c7:ed:41:1a:a6:82:0c:
         c5:ea:9b:67:ed:70:7d:c8:b1:5e:3d:82:25:44:7c:41:1e:3e:
         bc:68:8d:aa:11:4e:06:dc:47:bc:b6:dc:78:90:4d:be:23:c8:
         28:3e:a7:07:02:0a:ad:96:4c:7f:56:03:1e:9e:97:c5:61:6a:
         7e:cb:59:99:7d:e1:5d:20:f9:a2:ef:01:f4:f7:07:db:90:89:
         8a:d0:3a:45:86:6d:ec:da
-----BEGIN CERTIFICATE-----
MIIFozCCA4ugAwIBAgIBITANBgkqhkiG9w0BAQ0FADBsMQswCQYDVQQGEwJDQTEL
MAkGA1UECAwCUWMxDzANBgNVBAcMBlF1ZWJlYzEPMA0GA1UECgwGTXkgT3JnMRow
GAYDVQQLDBFNeSBPcmcgRGVwYXJ0bWVudDESMBAGA1UEAwwJTXkgT3JnIENBMB4X
DTE0MTIyOTA0NDIwMFoXDTI0MTIyODA0NDIwMFowaDELMAkGA1UEBhMCQ0ExCzAJ
BgNVBAgMAlFjMQ8wDQYDVQQHDAZRdWViZWMxDzANBgNVBAoMBk15IE9yZzEaMBgG
A1UECwwRTXkgT3JnIERlcGFydG1lbnQxDjAMBgNVBAMMBWRiLmhmMIICIjANBgkq
hkiG9w0BAQEFAAOCAg8AMIICCgKCAgEAz/ahcCwpiyy2K1bK3VSVlbho4ZsFX/qJ
hG3iO5P6Pzl5Ymmja8PbI66XchtWEjg+XeanLdBIzLuGQokwzdtXOzH0fUEQkdBH
79BoEVsDdVgqttlqBrRNPOUcGNgr1G+wo53u4l9oJ2X7j+xtLCd1PoJq72NPahUk
/Uhl57Au3GN7HdWbSjbk/EZ4nG+Lq/VyjiAKbHIS4JJLA6u6SQ7E8WZECMjC+Yum
jaWnDyH4EI8mn1h2PEId8SUbqByyiL/jNTeN48yfH0wuJSNQM+Ppd1WF4Nvx42JK
SR7iQdX2lCWjoOiJ8AxzzleiG8J1WvQqNlySYRk5F+O05H8hjDLJXnXNEHsl70i+
7nHcmnFv7g0P+/RyA/jgNf5Pt8pQKjckBKaia73Ugk9rEzguKxBaJgbW7DNqsD1F
D/pwPmZ2kjz27hkW99Wv0ylRmo+AJUcPJJWjp6TckLWx3OJOhUeLArXNJ3jdU7KI
ndh3smrOEBBH00DXPQ0zEoZeolRKj508QJo9Nu4VxVXiTZT9VqDesE1IbF03r1q8
A65p5yuCepSPw1l9VIcaR4mvWBFUQCOIPQV5yqujwNsPlB3rOpONohr0kXN5YWNG
I070NN3jfYulanhCFGuvx2GJ8cLQN8iBcJLGgx9sqPxPbPsVBC+2RDXDEojud4vG
v/bBo0pvILUCAwEAAaNUMFIwDgYDVR0PAQH/BAQDAgWgMAwGA1UdEwEB/wQCMAAw
EwYDVR0lBAwwCgYIKwYBBQUHAwEwHQYDVR0OBBYEFBetBWiYXgvEKLcvuDYWhMWm
Vy/VMA0GCSqGSIb3DQEBDQUAA4ICAQBhpM9nXGvm0dDzvtInciwD7QKbNo8g56Dn
NlWx7c0bP02BaNwRyK8bgnNTKYyaq9gumJ6JdATGV7MS6cVtqW7PSXAegcIDspNw
MBlTSrqOwWMIwxg/tAXipJ371k+EO8QjVWkepmhtsL/q//ItGTJ3zLkbYpgoHgXm
8vw5ptlrE9O5sHrzvB72HgbuEalnp6OauKBGMQQUIj6Cc62iThl3r/2bo/VVaFEb
ngbnSJNC1uLCkJz1UjThzrj0juRztfoaKjzQgCK+kx/Ac7c1ZN4yEUeqQiozd8Xd
gAyXhqVKIw4qpU1i/+ue6HG+Bm/q0obCBuyXE0qBkuA0G8GiSRKKWLQNS5Skha7x
h53RCXxx+hUBJ47uc0K1+LpcbwkuIdoXXPlvzr2LkA6H6jvp+ViSCSkbTiE0CsVD
CWT52NpXFU6XQC7ME2udqqmgmLTbsdJ2aH7XSym51QSZ6gDIYJ785qSBWoQT3YwV
sTV5Zk5dJeSzbVIDQKXZICHqjsS2UdZS5g2We9Wp970Nhc4w7JXxhjek/bHI0Ual
0qNUHUbYODbBnhEWI9ZviMftQRqmggzF6ptn7XB9yLFePYIlRHxBHj68aI2qEU4G
3Ee8ttx4kE2+I8goPqcHAgqtlkx/VgMenpfFYWp+y1mZfeFdIPmi7wH09wfbkImK
0DpFhm3s2g==
-----END CERTIFICATE-----
