Certificate:
    Data:
        Version: 3 (0x2)
        Serial Number: 1 (0x1)
    Signature Algorithm: sha512WithRSAEncryption
        Issuer: DC=hf, O=Hackfest Communication, OU=Hackfest CA, CN=Hackfest CA
        Validity
            Not Before: Oct 18 20:24:08 2014 GMT
            Not After : Oct 17 20:24:08 2016 GMT
        Subject: DC=hf, O=Hackfest Communication, OU=Hackfest CA, CN=Hackfest CA
        Subject Public Key Info:
            Public Key Algorithm: rsaEncryption
                Public-Key: (4096 bit)
                Modulus:
                    00:d9:23:60:bc:45:10:02:af:ab:09:3e:48:19:08:
                    42:27:ed:55:d3:c4:74:b6:2b:fe:76:13:c2:56:4e:
                    d4:d9:98:87:11:b8:4e:ea:3a:e1:3c:c8:1e:56:67:
                    e7:53:32:72:e1:79:10:71:90:21:79:84:d1:d6:f2:
                    c9:65:6f:47:d9:9f:51:c5:25:e3:9d:65:00:ad:6f:
                    2e:82:5e:d4:37:6a:a2:61:af:59:39:c5:4e:3e:51:
                    cf:be:31:e2:95:1d:6f:e7:bb:71:c0:e7:45:06:9c:
                    ec:95:ba:d2:80:b6:01:9d:ba:ae:2a:8d:73:70:0c:
                    91:eb:20:a5:e7:31:d0:8a:b4:54:1f:e7:09:c0:99:
                    d2:fc:88:2a:17:59:db:7c:90:61:41:47:9d:36:37:
                    35:ef:54:3a:61:f5:9e:8a:50:28:8f:0c:b5:71:13:
                    dd:89:7f:ad:fb:5b:58:80:f5:31:93:31:80:d2:53:
                    60:66:4b:8e:94:32:17:e0:05:56:da:d0:9f:bc:a5:
                    0e:d8:88:99:2e:2d:22:f1:85:fe:9b:e9:d7:48:e7:
                    fc:80:61:ad:9e:46:01:f0:13:bf:fd:3f:8e:c1:31:
                    16:55:75:fb:f0:6d:d4:aa:c9:e8:47:e3:50:3d:7b:
                    54:09:35:96:94:96:48:e2:4f:44:f0:43:c9:0f:5a:
                    1a:be:f4:f7:97:34:7d:87:db:9e:0f:4f:be:fd:73:
                    3c:89:f4:f6:c3:eb:ce:db:7c:92:7c:0a:f1:8c:82:
                    0a:61:a5:3a:16:94:af:1f:d7:a2:94:42:da:4c:67:
                    8f:43:ec:89:e8:43:6f:a6:b6:75:a4:ae:19:c9:68:
                    c9:95:42:03:b0:a7:02:07:aa:9c:56:5f:88:8a:99:
                    2d:1b:ff:50:7c:22:95:e1:c5:6e:0c:e7:47:71:74:
                    4b:a3:2d:2c:84:b3:d4:3b:98:e0:23:15:94:78:1c:
                    28:d2:62:b0:34:ff:fb:6f:e1:20:d8:80:4f:88:bc:
                    86:5d:31:ba:85:3d:ca:55:e3:95:da:49:a9:89:d5:
                    3c:49:6e:9c:a6:93:d8:d2:29:c2:54:f5:f0:0a:72:
                    4c:a4:ed:56:1f:2f:58:b1:2f:9b:c4:37:fe:c7:47:
                    5d:52:a4:6c:fa:29:cf:0a:34:27:02:27:14:bb:ae:
                    b1:d3:37:da:04:c2:a0:05:c9:4c:1a:8f:0f:ec:90:
                    de:a4:cc:8c:83:b7:a0:52:b3:a1:be:90:bb:9a:a6:
                    97:1c:fc:7d:2a:dd:8c:df:04:b4:6c:2d:b7:47:0d:
                    13:d0:db:5d:13:ab:21:69:e2:e2:e0:0f:16:98:34:
                    0e:84:36:23:08:ab:66:89:b7:4f:13:88:51:3f:f7:
                    9c:be:4d
                Exponent: 65537 (0x10001)
        X509v3 extensions:
            X509v3 Key Usage: critical
                Certificate Sign, CRL Sign
            X509v3 Basic Constraints: critical
                CA:TRUE
            X509v3 Subject Key Identifier: 
                48:E2:02:16:6D:FA:2F:B6:21:7A:56:3F:F1:86:56:DD:1E:97:FE:72
            X509v3 Authority Key Identifier: 
                keyid:48:E2:02:16:6D:FA:2F:B6:21:7A:56:3F:F1:86:56:DD:1E:97:FE:72

    Signature Algorithm: sha512WithRSAEncryption
         5c:e7:69:9e:e2:85:b5:a9:2e:8b:bf:4b:8a:26:4f:41:36:ec:
         7f:d6:1e:61:ad:c3:71:a4:65:31:7c:1c:f6:f7:0f:66:05:02:
         2e:7b:b0:59:d8:c9:35:ae:21:11:af:73:68:92:7b:f9:42:59:
         d7:23:28:f2:4e:14:23:64:21:ea:28:ec:ea:a0:a7:28:d2:a3:
         0f:f7:8c:ae:4f:22:26:58:57:78:89:6e:d3:cf:91:3b:cc:5b:
         3a:bd:fb:90:f6:b5:3f:cf:bd:b4:e2:22:d1:60:2d:cb:33:fe:
         3e:15:f9:88:16:d3:e8:e4:69:2f:f1:5f:a0:56:4f:4a:e0:e3:
         fa:2e:30:4f:7b:b7:d5:73:de:52:fa:a1:ec:33:ad:fe:30:91:
         00:a7:b2:e0:f0:ef:d1:4a:ed:38:a3:e0:a6:a5:90:18:fa:af:
         7e:f2:b3:fd:8d:f2:7a:88:84:ac:99:ed:4e:41:d8:a9:46:b6:
         37:2c:bc:7b:d7:2d:71:75:14:7c:4d:69:6e:a5:c6:89:60:18:
         74:c8:6a:8e:c5:6a:dc:07:ba:4c:3a:1c:a4:2c:6d:77:0a:90:
         b1:17:2e:0d:d9:e7:b6:72:a5:57:0a:29:a6:5e:e2:32:99:fb:
         e6:3b:50:8f:d5:47:0e:68:ff:0a:c8:3c:9f:20:fb:94:33:0a:
         3a:5b:cb:38:25:9c:26:ed:df:a3:bd:b7:c8:64:d5:df:db:56:
         76:7b:ae:d1:99:45:95:88:ad:c4:58:ab:8b:87:6a:f1:29:aa:
         52:8f:d4:32:d5:7e:34:ec:6a:29:46:35:d4:28:22:99:91:6b:
         b2:4f:46:81:89:51:4b:3e:bd:10:19:b1:f4:a7:38:2f:fd:6b:
         5f:e1:fc:45:70:61:7f:20:03:f0:1a:95:33:d6:a1:a1:d0:b6:
         4e:28:30:82:31:4f:d5:8e:47:54:5d:e3:52:1f:14:d8:8b:24:
         d7:53:8e:63:52:a4:80:22:7f:10:ac:a6:6b:81:08:6b:74:e1:
         65:69:75:0f:03:e6:04:e2:71:e7:4e:64:5f:85:01:45:2b:4c:
         be:65:f0:85:2e:59:28:f6:bf:bf:36:39:71:71:2a:7f:ae:95:
         21:86:4e:1f:5b:51:92:ef:70:3b:92:b7:b8:59:32:cb:42:48:
         ee:af:dc:75:c3:8d:56:f6:90:07:66:c3:74:1a:9b:47:f6:53:
         91:e3:5f:2d:32:5f:9b:6f:fd:e0:96:93:82:64:b5:2f:88:15:
         41:b5:da:fa:6f:9b:81:19:af:6d:ed:83:5c:25:fa:3b:5b:8b:
         ed:e3:28:80:11:b2:a8:4e:1c:14:4d:4b:a1:cd:a3:47:3e:9b:
         d4:f8:4a:f6:7f:29:d4:35
-----BEGIN CERTIFICATE-----
MIIFoDCCA4igAwIBAgIBATANBgkqhkiG9w0BAQ0FADBhMRIwEAYKCZImiZPyLGQB
GRYCaGYxHzAdBgNVBAoMFkhhY2tmZXN0IENvbW11bmljYXRpb24xFDASBgNVBAsM
C0hhY2tmZXN0IENBMRQwEgYDVQQDDAtIYWNrZmVzdCBDQTAeFw0xNDEwMTgyMDI0
MDhaFw0xNjEwMTcyMDI0MDhaMGExEjAQBgoJkiaJk/IsZAEZFgJoZjEfMB0GA1UE
CgwWSGFja2Zlc3QgQ29tbXVuaWNhdGlvbjEUMBIGA1UECwwLSGFja2Zlc3QgQ0Ex
FDASBgNVBAMMC0hhY2tmZXN0IENBMIICIjANBgkqhkiG9w0BAQEFAAOCAg8AMIIC
CgKCAgEA2SNgvEUQAq+rCT5IGQhCJ+1V08R0tiv+dhPCVk7U2ZiHEbhO6jrhPMge
VmfnUzJy4XkQcZAheYTR1vLJZW9H2Z9RxSXjnWUArW8ugl7UN2qiYa9ZOcVOPlHP
vjHilR1v57txwOdFBpzslbrSgLYBnbquKo1zcAyR6yCl5zHQirRUH+cJwJnS/Igq
F1nbfJBhQUedNjc171Q6YfWeilAojwy1cRPdiX+t+1tYgPUxkzGA0lNgZkuOlDIX
4AVW2tCfvKUO2IiZLi0i8YX+m+nXSOf8gGGtnkYB8BO//T+OwTEWVXX78G3Uqsno
R+NQPXtUCTWWlJZI4k9E8EPJD1oavvT3lzR9h9ueD0++/XM8ifT2w+vO23ySfArx
jIIKYaU6FpSvH9eilELaTGePQ+yJ6ENvprZ1pK4ZyWjJlUIDsKcCB6qcVl+Iipkt
G/9QfCKV4cVuDOdHcXRLoy0shLPUO5jgIxWUeBwo0mKwNP/7b+Eg2IBPiLyGXTG6
hT3KVeOV2kmpidU8SW6cppPY0inCVPXwCnJMpO1WHy9YsS+bxDf+x0ddUqRs+inP
CjQnAicUu66x0zfaBMKgBclMGo8P7JDepMyMg7egUrOhvpC7mqaXHPx9Kt2M3wS0
bC23Rw0T0NtdE6shaeLi4A8WmDQOhDYjCKtmibdPE4hRP/ecvk0CAwEAAaNjMGEw
DgYDVR0PAQH/BAQDAgEGMA8GA1UdEwEB/wQFMAMBAf8wHQYDVR0OBBYEFEjiAhZt
+i+2IXpWP/GGVt0el/5yMB8GA1UdIwQYMBaAFEjiAhZt+i+2IXpWP/GGVt0el/5y
MA0GCSqGSIb3DQEBDQUAA4ICAQBc52me4oW1qS6Lv0uKJk9BNux/1h5hrcNxpGUx
fBz29w9mBQIue7BZ2Mk1riERr3Noknv5QlnXIyjyThQjZCHqKOzqoKco0qMP94yu
TyImWFd4iW7Tz5E7zFs6vfuQ9rU/z7204iLRYC3LM/4+FfmIFtPo5Gkv8V+gVk9K
4OP6LjBPe7fVc95S+qHsM63+MJEAp7Lg8O/RSu04o+CmpZAY+q9+8rP9jfJ6iISs
me1OQdipRrY3LLx71y1xdRR8TWlupcaJYBh0yGqOxWrcB7pMOhykLG13CpCxFy4N
2ee2cqVXCimmXuIymfvmO1CP1UcOaP8KyDyfIPuUMwo6W8s4JZwm7d+jvbfIZNXf
21Z2e67RmUWViK3EWKuLh2rxKapSj9Qy1X407GopRjXUKCKZkWuyT0aBiVFLPr0Q
GbH0pzgv/Wtf4fxFcGF/IAPwGpUz1qGh0LZOKDCCMU/VjkdUXeNSHxTYiyTXU45j
UqSAIn8QrKZrgQhrdOFlaXUPA+YE4nHnTmRfhQFFK0y+ZfCFLlko9r+/NjlxcSp/
rpUhhk4fW1GS73A7kre4WTLLQkjur9x1w41W9pAHZsN0GptH9lOR418tMl+bb/3g
lpOCZLUviBVBtdr6b5uBGa9t7YNcJfo7W4vt4yiAEbKoThwUTUuhzaNHPpvU+Er2
fynUNQ==
-----END CERTIFICATE-----
